
kernel/kernel:     file format elf64-littleriscv


Disassembly of section .text:

0000000080000000 <_entry>:
    80000000:	0001e117          	auipc	sp,0x1e
    80000004:	14010113          	add	sp,sp,320 # 8001e140 <stack0>
    80000008:	6505                	lui	a0,0x1
    8000000a:	f14025f3          	csrr	a1,mhartid
    8000000e:	0585                	add	a1,a1,1
    80000010:	02b50533          	mul	a0,a0,a1
    80000014:	912a                	add	sp,sp,a0
    80000016:	738050ef          	jal	8000574e <start>

000000008000001a <spin>:
    8000001a:	a001                	j	8000001a <spin>

000000008000001c <kfree>:
// which normally should have been returned by a
// call to kalloc().  (The exception is when
// initializing the allocator; see kinit above.)
void
kfree(void *pa)
{
    8000001c:	1101                	add	sp,sp,-32
    8000001e:	ec06                	sd	ra,24(sp)
    80000020:	e822                	sd	s0,16(sp)
    80000022:	e426                	sd	s1,8(sp)
    80000024:	e04a                	sd	s2,0(sp)
    80000026:	1000                	add	s0,sp,32
  struct run *r;

  if(((uint64)pa % PGSIZE) != 0 || (char*)pa < end || (uint64)pa >= PHYSTOP)
    80000028:	03451793          	sll	a5,a0,0x34
    8000002c:	ebb9                	bnez	a5,80000082 <kfree+0x66>
    8000002e:	84aa                	mv	s1,a0
    80000030:	00026797          	auipc	a5,0x26
    80000034:	21078793          	add	a5,a5,528 # 80026240 <end>
    80000038:	04f56563          	bltu	a0,a5,80000082 <kfree+0x66>
    8000003c:	47c5                	li	a5,17
    8000003e:	07ee                	sll	a5,a5,0x1b
    80000040:	04f57163          	bgeu	a0,a5,80000082 <kfree+0x66>
    panic("kfree");

  // Fill with junk to catch dangling refs.
  memset(pa, 1, PGSIZE);
    80000044:	6605                	lui	a2,0x1
    80000046:	4585                	li	a1,1
    80000048:	00000097          	auipc	ra,0x0
    8000004c:	132080e7          	jalr	306(ra) # 8000017a <memset>

  r = (struct run*)pa;

  acquire(&kmem.lock);
    80000050:	00009917          	auipc	s2,0x9
    80000054:	fe090913          	add	s2,s2,-32 # 80009030 <kmem>
    80000058:	854a                	mv	a0,s2
    8000005a:	00006097          	auipc	ra,0x6
    8000005e:	13c080e7          	jalr	316(ra) # 80006196 <acquire>
  r->next = kmem.freelist;
    80000062:	01893783          	ld	a5,24(s2)
    80000066:	e09c                	sd	a5,0(s1)
  kmem.freelist = r;
    80000068:	00993c23          	sd	s1,24(s2)
  release(&kmem.lock);
    8000006c:	854a                	mv	a0,s2
    8000006e:	00006097          	auipc	ra,0x6
    80000072:	1dc080e7          	jalr	476(ra) # 8000624a <release>
}
    80000076:	60e2                	ld	ra,24(sp)
    80000078:	6442                	ld	s0,16(sp)
    8000007a:	64a2                	ld	s1,8(sp)
    8000007c:	6902                	ld	s2,0(sp)
    8000007e:	6105                	add	sp,sp,32
    80000080:	8082                	ret
    panic("kfree");
    80000082:	00008517          	auipc	a0,0x8
    80000086:	f7e50513          	add	a0,a0,-130 # 80008000 <etext>
    8000008a:	00006097          	auipc	ra,0x6
    8000008e:	b92080e7          	jalr	-1134(ra) # 80005c1c <panic>

0000000080000092 <freerange>:
{
    80000092:	7179                	add	sp,sp,-48
    80000094:	f406                	sd	ra,40(sp)
    80000096:	f022                	sd	s0,32(sp)
    80000098:	ec26                	sd	s1,24(sp)
    8000009a:	1800                	add	s0,sp,48
  p = (char*)PGROUNDUP((uint64)pa_start);
    8000009c:	6785                	lui	a5,0x1
    8000009e:	fff78713          	add	a4,a5,-1 # fff <_entry-0x7ffff001>
    800000a2:	00e504b3          	add	s1,a0,a4
    800000a6:	777d                	lui	a4,0xfffff
    800000a8:	8cf9                	and	s1,s1,a4
  for(; p + PGSIZE <= (char*)pa_end; p += PGSIZE)
    800000aa:	94be                	add	s1,s1,a5
    800000ac:	0295e463          	bltu	a1,s1,800000d4 <freerange+0x42>
    800000b0:	e84a                	sd	s2,16(sp)
    800000b2:	e44e                	sd	s3,8(sp)
    800000b4:	e052                	sd	s4,0(sp)
    800000b6:	892e                	mv	s2,a1
    kfree(p);
    800000b8:	7a7d                	lui	s4,0xfffff
  for(; p + PGSIZE <= (char*)pa_end; p += PGSIZE)
    800000ba:	6985                	lui	s3,0x1
    kfree(p);
    800000bc:	01448533          	add	a0,s1,s4
    800000c0:	00000097          	auipc	ra,0x0
    800000c4:	f5c080e7          	jalr	-164(ra) # 8000001c <kfree>
  for(; p + PGSIZE <= (char*)pa_end; p += PGSIZE)
    800000c8:	94ce                	add	s1,s1,s3
    800000ca:	fe9979e3          	bgeu	s2,s1,800000bc <freerange+0x2a>
    800000ce:	6942                	ld	s2,16(sp)
    800000d0:	69a2                	ld	s3,8(sp)
    800000d2:	6a02                	ld	s4,0(sp)
}
    800000d4:	70a2                	ld	ra,40(sp)
    800000d6:	7402                	ld	s0,32(sp)
    800000d8:	64e2                	ld	s1,24(sp)
    800000da:	6145                	add	sp,sp,48
    800000dc:	8082                	ret

00000000800000de <kinit>:
{
    800000de:	1141                	add	sp,sp,-16
    800000e0:	e406                	sd	ra,8(sp)
    800000e2:	e022                	sd	s0,0(sp)
    800000e4:	0800                	add	s0,sp,16
  initlock(&kmem.lock, "kmem");
    800000e6:	00008597          	auipc	a1,0x8
    800000ea:	f2a58593          	add	a1,a1,-214 # 80008010 <etext+0x10>
    800000ee:	00009517          	auipc	a0,0x9
    800000f2:	f4250513          	add	a0,a0,-190 # 80009030 <kmem>
    800000f6:	00006097          	auipc	ra,0x6
    800000fa:	010080e7          	jalr	16(ra) # 80006106 <initlock>
  freerange(end, (void*)PHYSTOP);
    800000fe:	45c5                	li	a1,17
    80000100:	05ee                	sll	a1,a1,0x1b
    80000102:	00026517          	auipc	a0,0x26
    80000106:	13e50513          	add	a0,a0,318 # 80026240 <end>
    8000010a:	00000097          	auipc	ra,0x0
    8000010e:	f88080e7          	jalr	-120(ra) # 80000092 <freerange>
}
    80000112:	60a2                	ld	ra,8(sp)
    80000114:	6402                	ld	s0,0(sp)
    80000116:	0141                	add	sp,sp,16
    80000118:	8082                	ret

000000008000011a <kalloc>:
// Allocate one 4096-byte page of physical memory.
// Returns a pointer that the kernel can use.
// Returns 0 if the memory cannot be allocated.
void *
kalloc(void)
{
    8000011a:	1101                	add	sp,sp,-32
    8000011c:	ec06                	sd	ra,24(sp)
    8000011e:	e822                	sd	s0,16(sp)
    80000120:	e426                	sd	s1,8(sp)
    80000122:	1000                	add	s0,sp,32
  struct run *r;

  acquire(&kmem.lock);
    80000124:	00009497          	auipc	s1,0x9
    80000128:	f0c48493          	add	s1,s1,-244 # 80009030 <kmem>
    8000012c:	8526                	mv	a0,s1
    8000012e:	00006097          	auipc	ra,0x6
    80000132:	068080e7          	jalr	104(ra) # 80006196 <acquire>
  r = kmem.freelist;
    80000136:	6c84                	ld	s1,24(s1)
  if(r)
    80000138:	c885                	beqz	s1,80000168 <kalloc+0x4e>
    kmem.freelist = r->next;
    8000013a:	609c                	ld	a5,0(s1)
    8000013c:	00009517          	auipc	a0,0x9
    80000140:	ef450513          	add	a0,a0,-268 # 80009030 <kmem>
    80000144:	ed1c                	sd	a5,24(a0)
  release(&kmem.lock);
    80000146:	00006097          	auipc	ra,0x6
    8000014a:	104080e7          	jalr	260(ra) # 8000624a <release>

  if(r)
    memset((char*)r, 5, PGSIZE); // fill with junk
    8000014e:	6605                	lui	a2,0x1
    80000150:	4595                	li	a1,5
    80000152:	8526                	mv	a0,s1
    80000154:	00000097          	auipc	ra,0x0
    80000158:	026080e7          	jalr	38(ra) # 8000017a <memset>
  return (void*)r;
}
    8000015c:	8526                	mv	a0,s1
    8000015e:	60e2                	ld	ra,24(sp)
    80000160:	6442                	ld	s0,16(sp)
    80000162:	64a2                	ld	s1,8(sp)
    80000164:	6105                	add	sp,sp,32
    80000166:	8082                	ret
  release(&kmem.lock);
    80000168:	00009517          	auipc	a0,0x9
    8000016c:	ec850513          	add	a0,a0,-312 # 80009030 <kmem>
    80000170:	00006097          	auipc	ra,0x6
    80000174:	0da080e7          	jalr	218(ra) # 8000624a <release>
  if(r)
    80000178:	b7d5                	j	8000015c <kalloc+0x42>

000000008000017a <memset>:
#include "types.h"

void*
memset(void *dst, int c, uint n)
{
    8000017a:	1141                	add	sp,sp,-16
    8000017c:	e422                	sd	s0,8(sp)
    8000017e:	0800                	add	s0,sp,16
  char *cdst = (char *) dst;
  int i;
  for(i = 0; i < n; i++){
    80000180:	ca19                	beqz	a2,80000196 <memset+0x1c>
    80000182:	87aa                	mv	a5,a0
    80000184:	1602                	sll	a2,a2,0x20
    80000186:	9201                	srl	a2,a2,0x20
    80000188:	00a60733          	add	a4,a2,a0
    cdst[i] = c;
    8000018c:	00b78023          	sb	a1,0(a5)
  for(i = 0; i < n; i++){
    80000190:	0785                	add	a5,a5,1
    80000192:	fee79de3          	bne	a5,a4,8000018c <memset+0x12>
  }
  return dst;
}
    80000196:	6422                	ld	s0,8(sp)
    80000198:	0141                	add	sp,sp,16
    8000019a:	8082                	ret

000000008000019c <memcmp>:

int
memcmp(const void *v1, const void *v2, uint n)
{
    8000019c:	1141                	add	sp,sp,-16
    8000019e:	e422                	sd	s0,8(sp)
    800001a0:	0800                	add	s0,sp,16
  const uchar *s1, *s2;

  s1 = v1;
  s2 = v2;
  while(n-- > 0){
    800001a2:	ca05                	beqz	a2,800001d2 <memcmp+0x36>
    800001a4:	fff6069b          	addw	a3,a2,-1 # fff <_entry-0x7ffff001>
    800001a8:	1682                	sll	a3,a3,0x20
    800001aa:	9281                	srl	a3,a3,0x20
    800001ac:	0685                	add	a3,a3,1
    800001ae:	96aa                	add	a3,a3,a0
    if(*s1 != *s2)
    800001b0:	00054783          	lbu	a5,0(a0)
    800001b4:	0005c703          	lbu	a4,0(a1)
    800001b8:	00e79863          	bne	a5,a4,800001c8 <memcmp+0x2c>
      return *s1 - *s2;
    s1++, s2++;
    800001bc:	0505                	add	a0,a0,1
    800001be:	0585                	add	a1,a1,1
  while(n-- > 0){
    800001c0:	fed518e3          	bne	a0,a3,800001b0 <memcmp+0x14>
  }

  return 0;
    800001c4:	4501                	li	a0,0
    800001c6:	a019                	j	800001cc <memcmp+0x30>
      return *s1 - *s2;
    800001c8:	40e7853b          	subw	a0,a5,a4
}
    800001cc:	6422                	ld	s0,8(sp)
    800001ce:	0141                	add	sp,sp,16
    800001d0:	8082                	ret
  return 0;
    800001d2:	4501                	li	a0,0
    800001d4:	bfe5                	j	800001cc <memcmp+0x30>

00000000800001d6 <memmove>:

void*
memmove(void *dst, const void *src, uint n)
{
    800001d6:	1141                	add	sp,sp,-16
    800001d8:	e422                	sd	s0,8(sp)
    800001da:	0800                	add	s0,sp,16
  const char *s;
  char *d;

  if(n == 0)
    800001dc:	c205                	beqz	a2,800001fc <memmove+0x26>
    return dst;
  
  s = src;
  d = dst;
  if(s < d && s + n > d){
    800001de:	02a5e263          	bltu	a1,a0,80000202 <memmove+0x2c>
    s += n;
    d += n;
    while(n-- > 0)
      *--d = *--s;
  } else
    while(n-- > 0)
    800001e2:	1602                	sll	a2,a2,0x20
    800001e4:	9201                	srl	a2,a2,0x20
    800001e6:	00c587b3          	add	a5,a1,a2
{
    800001ea:	872a                	mv	a4,a0
      *d++ = *s++;
    800001ec:	0585                	add	a1,a1,1
    800001ee:	0705                	add	a4,a4,1 # fffffffffffff001 <end+0xffffffff7ffd8dc1>
    800001f0:	fff5c683          	lbu	a3,-1(a1)
    800001f4:	fed70fa3          	sb	a3,-1(a4)
    while(n-- > 0)
    800001f8:	feb79ae3          	bne	a5,a1,800001ec <memmove+0x16>

  return dst;
}
    800001fc:	6422                	ld	s0,8(sp)
    800001fe:	0141                	add	sp,sp,16
    80000200:	8082                	ret
  if(s < d && s + n > d){
    80000202:	02061693          	sll	a3,a2,0x20
    80000206:	9281                	srl	a3,a3,0x20
    80000208:	00d58733          	add	a4,a1,a3
    8000020c:	fce57be3          	bgeu	a0,a4,800001e2 <memmove+0xc>
    d += n;
    80000210:	96aa                	add	a3,a3,a0
    while(n-- > 0)
    80000212:	fff6079b          	addw	a5,a2,-1
    80000216:	1782                	sll	a5,a5,0x20
    80000218:	9381                	srl	a5,a5,0x20
    8000021a:	fff7c793          	not	a5,a5
    8000021e:	97ba                	add	a5,a5,a4
      *--d = *--s;
    80000220:	177d                	add	a4,a4,-1
    80000222:	16fd                	add	a3,a3,-1
    80000224:	00074603          	lbu	a2,0(a4)
    80000228:	00c68023          	sb	a2,0(a3)
    while(n-- > 0)
    8000022c:	fef71ae3          	bne	a4,a5,80000220 <memmove+0x4a>
    80000230:	b7f1                	j	800001fc <memmove+0x26>

0000000080000232 <memcpy>:

// memcpy exists to placate GCC.  Use memmove.
void*
memcpy(void *dst, const void *src, uint n)
{
    80000232:	1141                	add	sp,sp,-16
    80000234:	e406                	sd	ra,8(sp)
    80000236:	e022                	sd	s0,0(sp)
    80000238:	0800                	add	s0,sp,16
  return memmove(dst, src, n);
    8000023a:	00000097          	auipc	ra,0x0
    8000023e:	f9c080e7          	jalr	-100(ra) # 800001d6 <memmove>
}
    80000242:	60a2                	ld	ra,8(sp)
    80000244:	6402                	ld	s0,0(sp)
    80000246:	0141                	add	sp,sp,16
    80000248:	8082                	ret

000000008000024a <strncmp>:

int
strncmp(const char *p, const char *q, uint n)
{
    8000024a:	1141                	add	sp,sp,-16
    8000024c:	e422                	sd	s0,8(sp)
    8000024e:	0800                	add	s0,sp,16
  while(n > 0 && *p && *p == *q)
    80000250:	ce11                	beqz	a2,8000026c <strncmp+0x22>
    80000252:	00054783          	lbu	a5,0(a0)
    80000256:	cf89                	beqz	a5,80000270 <strncmp+0x26>
    80000258:	0005c703          	lbu	a4,0(a1)
    8000025c:	00f71a63          	bne	a4,a5,80000270 <strncmp+0x26>
    n--, p++, q++;
    80000260:	367d                	addw	a2,a2,-1
    80000262:	0505                	add	a0,a0,1
    80000264:	0585                	add	a1,a1,1
  while(n > 0 && *p && *p == *q)
    80000266:	f675                	bnez	a2,80000252 <strncmp+0x8>
  if(n == 0)
    return 0;
    80000268:	4501                	li	a0,0
    8000026a:	a801                	j	8000027a <strncmp+0x30>
    8000026c:	4501                	li	a0,0
    8000026e:	a031                	j	8000027a <strncmp+0x30>
  return (uchar)*p - (uchar)*q;
    80000270:	00054503          	lbu	a0,0(a0)
    80000274:	0005c783          	lbu	a5,0(a1)
    80000278:	9d1d                	subw	a0,a0,a5
}
    8000027a:	6422                	ld	s0,8(sp)
    8000027c:	0141                	add	sp,sp,16
    8000027e:	8082                	ret

0000000080000280 <strncpy>:

char*
strncpy(char *s, const char *t, int n)
{
    80000280:	1141                	add	sp,sp,-16
    80000282:	e422                	sd	s0,8(sp)
    80000284:	0800                	add	s0,sp,16
  char *os;

  os = s;
  while(n-- > 0 && (*s++ = *t++) != 0)
    80000286:	87aa                	mv	a5,a0
    80000288:	86b2                	mv	a3,a2
    8000028a:	367d                	addw	a2,a2,-1
    8000028c:	02d05563          	blez	a3,800002b6 <strncpy+0x36>
    80000290:	0785                	add	a5,a5,1
    80000292:	0005c703          	lbu	a4,0(a1)
    80000296:	fee78fa3          	sb	a4,-1(a5)
    8000029a:	0585                	add	a1,a1,1
    8000029c:	f775                	bnez	a4,80000288 <strncpy+0x8>
    ;
  while(n-- > 0)
    8000029e:	873e                	mv	a4,a5
    800002a0:	9fb5                	addw	a5,a5,a3
    800002a2:	37fd                	addw	a5,a5,-1
    800002a4:	00c05963          	blez	a2,800002b6 <strncpy+0x36>
    *s++ = 0;
    800002a8:	0705                	add	a4,a4,1
    800002aa:	fe070fa3          	sb	zero,-1(a4)
  while(n-- > 0)
    800002ae:	40e786bb          	subw	a3,a5,a4
    800002b2:	fed04be3          	bgtz	a3,800002a8 <strncpy+0x28>
  return os;
}
    800002b6:	6422                	ld	s0,8(sp)
    800002b8:	0141                	add	sp,sp,16
    800002ba:	8082                	ret

00000000800002bc <safestrcpy>:

// Like strncpy but guaranteed to NUL-terminate.
char*
safestrcpy(char *s, const char *t, int n)
{
    800002bc:	1141                	add	sp,sp,-16
    800002be:	e422                	sd	s0,8(sp)
    800002c0:	0800                	add	s0,sp,16
  char *os;

  os = s;
  if(n <= 0)
    800002c2:	02c05363          	blez	a2,800002e8 <safestrcpy+0x2c>
    800002c6:	fff6069b          	addw	a3,a2,-1
    800002ca:	1682                	sll	a3,a3,0x20
    800002cc:	9281                	srl	a3,a3,0x20
    800002ce:	96ae                	add	a3,a3,a1
    800002d0:	87aa                	mv	a5,a0
    return os;
  while(--n > 0 && (*s++ = *t++) != 0)
    800002d2:	00d58963          	beq	a1,a3,800002e4 <safestrcpy+0x28>
    800002d6:	0585                	add	a1,a1,1
    800002d8:	0785                	add	a5,a5,1
    800002da:	fff5c703          	lbu	a4,-1(a1)
    800002de:	fee78fa3          	sb	a4,-1(a5)
    800002e2:	fb65                	bnez	a4,800002d2 <safestrcpy+0x16>
    ;
  *s = 0;
    800002e4:	00078023          	sb	zero,0(a5)
  return os;
}
    800002e8:	6422                	ld	s0,8(sp)
    800002ea:	0141                	add	sp,sp,16
    800002ec:	8082                	ret

00000000800002ee <strlen>:

int
strlen(const char *s)
{
    800002ee:	1141                	add	sp,sp,-16
    800002f0:	e422                	sd	s0,8(sp)
    800002f2:	0800                	add	s0,sp,16
  int n;

  for(n = 0; s[n]; n++)
    800002f4:	00054783          	lbu	a5,0(a0)
    800002f8:	cf91                	beqz	a5,80000314 <strlen+0x26>
    800002fa:	0505                	add	a0,a0,1
    800002fc:	87aa                	mv	a5,a0
    800002fe:	86be                	mv	a3,a5
    80000300:	0785                	add	a5,a5,1
    80000302:	fff7c703          	lbu	a4,-1(a5)
    80000306:	ff65                	bnez	a4,800002fe <strlen+0x10>
    80000308:	40a6853b          	subw	a0,a3,a0
    8000030c:	2505                	addw	a0,a0,1
    ;
  return n;
}
    8000030e:	6422                	ld	s0,8(sp)
    80000310:	0141                	add	sp,sp,16
    80000312:	8082                	ret
  for(n = 0; s[n]; n++)
    80000314:	4501                	li	a0,0
    80000316:	bfe5                	j	8000030e <strlen+0x20>

0000000080000318 <main>:
volatile static int started = 0;

// start() jumps here in supervisor mode on all CPUs.
void
main()
{
    80000318:	1141                	add	sp,sp,-16
    8000031a:	e406                	sd	ra,8(sp)
    8000031c:	e022                	sd	s0,0(sp)
    8000031e:	0800                	add	s0,sp,16
  if(cpuid() == 0){
    80000320:	00001097          	auipc	ra,0x1
    80000324:	b30080e7          	jalr	-1232(ra) # 80000e50 <cpuid>
    virtio_disk_init(); // emulated hard disk
    userinit();      // first user process
    __sync_synchronize();
    started = 1;
  } else {
    while(started == 0)
    80000328:	00009717          	auipc	a4,0x9
    8000032c:	cd870713          	add	a4,a4,-808 # 80009000 <started>
  if(cpuid() == 0){
    80000330:	c139                	beqz	a0,80000376 <main+0x5e>
    while(started == 0)
    80000332:	431c                	lw	a5,0(a4)
    80000334:	2781                	sext.w	a5,a5
    80000336:	dff5                	beqz	a5,80000332 <main+0x1a>
      ;
    __sync_synchronize();
    80000338:	0ff0000f          	fence
    printf("hart %d starting\n", cpuid());
    8000033c:	00001097          	auipc	ra,0x1
    80000340:	b14080e7          	jalr	-1260(ra) # 80000e50 <cpuid>
    80000344:	85aa                	mv	a1,a0
    80000346:	00008517          	auipc	a0,0x8
    8000034a:	cf250513          	add	a0,a0,-782 # 80008038 <etext+0x38>
    8000034e:	00006097          	auipc	ra,0x6
    80000352:	918080e7          	jalr	-1768(ra) # 80005c66 <printf>
    kvminithart();    // turn on paging
    80000356:	00000097          	auipc	ra,0x0
    8000035a:	0d8080e7          	jalr	216(ra) # 8000042e <kvminithart>
    trapinithart();   // install kernel trap vector
    8000035e:	00001097          	auipc	ra,0x1
    80000362:	776080e7          	jalr	1910(ra) # 80001ad4 <trapinithart>
    plicinithart();   // ask PLIC for device interrupts
    80000366:	00005097          	auipc	ra,0x5
    8000036a:	d9e080e7          	jalr	-610(ra) # 80005104 <plicinithart>
  }

  scheduler();        
    8000036e:	00001097          	auipc	ra,0x1
    80000372:	022080e7          	jalr	34(ra) # 80001390 <scheduler>
    consoleinit();
    80000376:	00005097          	auipc	ra,0x5
    8000037a:	7b6080e7          	jalr	1974(ra) # 80005b2c <consoleinit>
    printfinit();
    8000037e:	00006097          	auipc	ra,0x6
    80000382:	af0080e7          	jalr	-1296(ra) # 80005e6e <printfinit>
    printf("\n");
    80000386:	00008517          	auipc	a0,0x8
    8000038a:	c9250513          	add	a0,a0,-878 # 80008018 <etext+0x18>
    8000038e:	00006097          	auipc	ra,0x6
    80000392:	8d8080e7          	jalr	-1832(ra) # 80005c66 <printf>
    printf("xv6 kernel is booting\n");
    80000396:	00008517          	auipc	a0,0x8
    8000039a:	c8a50513          	add	a0,a0,-886 # 80008020 <etext+0x20>
    8000039e:	00006097          	auipc	ra,0x6
    800003a2:	8c8080e7          	jalr	-1848(ra) # 80005c66 <printf>
    printf("\n");
    800003a6:	00008517          	auipc	a0,0x8
    800003aa:	c7250513          	add	a0,a0,-910 # 80008018 <etext+0x18>
    800003ae:	00006097          	auipc	ra,0x6
    800003b2:	8b8080e7          	jalr	-1864(ra) # 80005c66 <printf>
    kinit();         // physical page allocator
    800003b6:	00000097          	auipc	ra,0x0
    800003ba:	d28080e7          	jalr	-728(ra) # 800000de <kinit>
    kvminit();       // create kernel page table
    800003be:	00000097          	auipc	ra,0x0
    800003c2:	322080e7          	jalr	802(ra) # 800006e0 <kvminit>
    kvminithart();   // turn on paging
    800003c6:	00000097          	auipc	ra,0x0
    800003ca:	068080e7          	jalr	104(ra) # 8000042e <kvminithart>
    procinit();      // process table
    800003ce:	00001097          	auipc	ra,0x1
    800003d2:	9c4080e7          	jalr	-1596(ra) # 80000d92 <procinit>
    trapinit();      // trap vectors
    800003d6:	00001097          	auipc	ra,0x1
    800003da:	6d6080e7          	jalr	1750(ra) # 80001aac <trapinit>
    trapinithart();  // install kernel trap vector
    800003de:	00001097          	auipc	ra,0x1
    800003e2:	6f6080e7          	jalr	1782(ra) # 80001ad4 <trapinithart>
    plicinit();      // set up interrupt controller
    800003e6:	00005097          	auipc	ra,0x5
    800003ea:	d04080e7          	jalr	-764(ra) # 800050ea <plicinit>
    plicinithart();  // ask PLIC for device interrupts
    800003ee:	00005097          	auipc	ra,0x5
    800003f2:	d16080e7          	jalr	-746(ra) # 80005104 <plicinithart>
    binit();         // buffer cache
    800003f6:	00002097          	auipc	ra,0x2
    800003fa:	e30080e7          	jalr	-464(ra) # 80002226 <binit>
    iinit();         // inode table
    800003fe:	00002097          	auipc	ra,0x2
    80000402:	4bc080e7          	jalr	1212(ra) # 800028ba <iinit>
    fileinit();      // file table
    80000406:	00003097          	auipc	ra,0x3
    8000040a:	460080e7          	jalr	1120(ra) # 80003866 <fileinit>
    virtio_disk_init(); // emulated hard disk
    8000040e:	00005097          	auipc	ra,0x5
    80000412:	e16080e7          	jalr	-490(ra) # 80005224 <virtio_disk_init>
    userinit();      // first user process
    80000416:	00001097          	auipc	ra,0x1
    8000041a:	d3e080e7          	jalr	-706(ra) # 80001154 <userinit>
    __sync_synchronize();
    8000041e:	0ff0000f          	fence
    started = 1;
    80000422:	4785                	li	a5,1
    80000424:	00009717          	auipc	a4,0x9
    80000428:	bcf72e23          	sw	a5,-1060(a4) # 80009000 <started>
    8000042c:	b789                	j	8000036e <main+0x56>

000000008000042e <kvminithart>:

// Switch h/w page table register to the kernel's page table,
// and enable paging.
void
kvminithart()
{
    8000042e:	1141                	add	sp,sp,-16
    80000430:	e422                	sd	s0,8(sp)
    80000432:	0800                	add	s0,sp,16
  w_satp(MAKE_SATP(kernel_pagetable));
    80000434:	00009797          	auipc	a5,0x9
    80000438:	bd47b783          	ld	a5,-1068(a5) # 80009008 <kernel_pagetable>
    8000043c:	83b1                	srl	a5,a5,0xc
    8000043e:	577d                	li	a4,-1
    80000440:	177e                	sll	a4,a4,0x3f
    80000442:	8fd9                	or	a5,a5,a4
// supervisor address translation and protection;
// holds the address of the page table.
static inline void 
w_satp(uint64 x)
{
  asm volatile("csrw satp, %0" : : "r" (x));
    80000444:	18079073          	csrw	satp,a5
// flush the TLB.
static inline void
sfence_vma()
{
  // the zero, zero means flush all TLB entries.
  asm volatile("sfence.vma zero, zero");
    80000448:	12000073          	sfence.vma
  sfence_vma();
}
    8000044c:	6422                	ld	s0,8(sp)
    8000044e:	0141                	add	sp,sp,16
    80000450:	8082                	ret

0000000080000452 <walk>:
//   21..29 -- 9 bits of level-1 index.
//   12..20 -- 9 bits of level-0 index.
//    0..11 -- 12 bits of byte offset within the page.
pte_t *
walk(pagetable_t pagetable, uint64 va, int alloc)
{
    80000452:	7139                	add	sp,sp,-64
    80000454:	fc06                	sd	ra,56(sp)
    80000456:	f822                	sd	s0,48(sp)
    80000458:	f426                	sd	s1,40(sp)
    8000045a:	f04a                	sd	s2,32(sp)
    8000045c:	ec4e                	sd	s3,24(sp)
    8000045e:	e852                	sd	s4,16(sp)
    80000460:	e456                	sd	s5,8(sp)
    80000462:	e05a                	sd	s6,0(sp)
    80000464:	0080                	add	s0,sp,64
    80000466:	84aa                	mv	s1,a0
    80000468:	89ae                	mv	s3,a1
    8000046a:	8ab2                	mv	s5,a2
  if(va >= MAXVA)
    8000046c:	57fd                	li	a5,-1
    8000046e:	83e9                	srl	a5,a5,0x1a
    80000470:	4a79                	li	s4,30
    panic("walk");

  for(int level = 2; level > 0; level--) {
    80000472:	4b31                	li	s6,12
  if(va >= MAXVA)
    80000474:	04b7f263          	bgeu	a5,a1,800004b8 <walk+0x66>
    panic("walk");
    80000478:	00008517          	auipc	a0,0x8
    8000047c:	bd850513          	add	a0,a0,-1064 # 80008050 <etext+0x50>
    80000480:	00005097          	auipc	ra,0x5
    80000484:	79c080e7          	jalr	1948(ra) # 80005c1c <panic>
    pte_t *pte = &pagetable[PX(level, va)];
    if(*pte & PTE_V) {
      pagetable = (pagetable_t)PTE2PA(*pte);
    } else {
      if(!alloc || (pagetable = (pde_t*)kalloc()) == 0)
    80000488:	060a8663          	beqz	s5,800004f4 <walk+0xa2>
    8000048c:	00000097          	auipc	ra,0x0
    80000490:	c8e080e7          	jalr	-882(ra) # 8000011a <kalloc>
    80000494:	84aa                	mv	s1,a0
    80000496:	c529                	beqz	a0,800004e0 <walk+0x8e>
        return 0;
      memset(pagetable, 0, PGSIZE);
    80000498:	6605                	lui	a2,0x1
    8000049a:	4581                	li	a1,0
    8000049c:	00000097          	auipc	ra,0x0
    800004a0:	cde080e7          	jalr	-802(ra) # 8000017a <memset>
      *pte = PA2PTE(pagetable) | PTE_V;
    800004a4:	00c4d793          	srl	a5,s1,0xc
    800004a8:	07aa                	sll	a5,a5,0xa
    800004aa:	0017e793          	or	a5,a5,1
    800004ae:	00f93023          	sd	a5,0(s2)
  for(int level = 2; level > 0; level--) {
    800004b2:	3a5d                	addw	s4,s4,-9 # ffffffffffffeff7 <end+0xffffffff7ffd8db7>
    800004b4:	036a0063          	beq	s4,s6,800004d4 <walk+0x82>
    pte_t *pte = &pagetable[PX(level, va)];
    800004b8:	0149d933          	srl	s2,s3,s4
    800004bc:	1ff97913          	and	s2,s2,511
    800004c0:	090e                	sll	s2,s2,0x3
    800004c2:	9926                	add	s2,s2,s1
    if(*pte & PTE_V) {
    800004c4:	00093483          	ld	s1,0(s2)
    800004c8:	0014f793          	and	a5,s1,1
    800004cc:	dfd5                	beqz	a5,80000488 <walk+0x36>
      pagetable = (pagetable_t)PTE2PA(*pte);
    800004ce:	80a9                	srl	s1,s1,0xa
    800004d0:	04b2                	sll	s1,s1,0xc
    800004d2:	b7c5                	j	800004b2 <walk+0x60>
    }
  }
  return &pagetable[PX(0, va)];
    800004d4:	00c9d513          	srl	a0,s3,0xc
    800004d8:	1ff57513          	and	a0,a0,511
    800004dc:	050e                	sll	a0,a0,0x3
    800004de:	9526                	add	a0,a0,s1
}
    800004e0:	70e2                	ld	ra,56(sp)
    800004e2:	7442                	ld	s0,48(sp)
    800004e4:	74a2                	ld	s1,40(sp)
    800004e6:	7902                	ld	s2,32(sp)
    800004e8:	69e2                	ld	s3,24(sp)
    800004ea:	6a42                	ld	s4,16(sp)
    800004ec:	6aa2                	ld	s5,8(sp)
    800004ee:	6b02                	ld	s6,0(sp)
    800004f0:	6121                	add	sp,sp,64
    800004f2:	8082                	ret
        return 0;
    800004f4:	4501                	li	a0,0
    800004f6:	b7ed                	j	800004e0 <walk+0x8e>

00000000800004f8 <walkaddr>:
walkaddr(pagetable_t pagetable, uint64 va)
{
  pte_t *pte;
  uint64 pa;

  if(va >= MAXVA)
    800004f8:	57fd                	li	a5,-1
    800004fa:	83e9                	srl	a5,a5,0x1a
    800004fc:	00b7f463          	bgeu	a5,a1,80000504 <walkaddr+0xc>
    return 0;
    80000500:	4501                	li	a0,0
    return 0;
  if((*pte & PTE_U) == 0)
    return 0;
  pa = PTE2PA(*pte);
  return pa;
}
    80000502:	8082                	ret
{
    80000504:	1141                	add	sp,sp,-16
    80000506:	e406                	sd	ra,8(sp)
    80000508:	e022                	sd	s0,0(sp)
    8000050a:	0800                	add	s0,sp,16
  pte = walk(pagetable, va, 0);
    8000050c:	4601                	li	a2,0
    8000050e:	00000097          	auipc	ra,0x0
    80000512:	f44080e7          	jalr	-188(ra) # 80000452 <walk>
  if(pte == 0)
    80000516:	c105                	beqz	a0,80000536 <walkaddr+0x3e>
  if((*pte & PTE_V) == 0)
    80000518:	611c                	ld	a5,0(a0)
  if((*pte & PTE_U) == 0)
    8000051a:	0117f693          	and	a3,a5,17
    8000051e:	4745                	li	a4,17
    return 0;
    80000520:	4501                	li	a0,0
  if((*pte & PTE_U) == 0)
    80000522:	00e68663          	beq	a3,a4,8000052e <walkaddr+0x36>
}
    80000526:	60a2                	ld	ra,8(sp)
    80000528:	6402                	ld	s0,0(sp)
    8000052a:	0141                	add	sp,sp,16
    8000052c:	8082                	ret
  pa = PTE2PA(*pte);
    8000052e:	83a9                	srl	a5,a5,0xa
    80000530:	00c79513          	sll	a0,a5,0xc
  return pa;
    80000534:	bfcd                	j	80000526 <walkaddr+0x2e>
    return 0;
    80000536:	4501                	li	a0,0
    80000538:	b7fd                	j	80000526 <walkaddr+0x2e>

000000008000053a <mappages>:
// physical addresses starting at pa. va and size might not
// be page-aligned. Returns 0 on success, -1 if walk() couldn't
// allocate a needed page-table page.
int
mappages(pagetable_t pagetable, uint64 va, uint64 size, uint64 pa, int perm)
{
    8000053a:	715d                	add	sp,sp,-80
    8000053c:	e486                	sd	ra,72(sp)
    8000053e:	e0a2                	sd	s0,64(sp)
    80000540:	fc26                	sd	s1,56(sp)
    80000542:	f84a                	sd	s2,48(sp)
    80000544:	f44e                	sd	s3,40(sp)
    80000546:	f052                	sd	s4,32(sp)
    80000548:	ec56                	sd	s5,24(sp)
    8000054a:	e85a                	sd	s6,16(sp)
    8000054c:	e45e                	sd	s7,8(sp)
    8000054e:	0880                	add	s0,sp,80
  uint64 a, last;
  pte_t *pte;

  if(size == 0)
    80000550:	c639                	beqz	a2,8000059e <mappages+0x64>
    80000552:	8aaa                	mv	s5,a0
    80000554:	8b3a                	mv	s6,a4
    panic("mappages: size");
  
  a = PGROUNDDOWN(va);
    80000556:	777d                	lui	a4,0xfffff
    80000558:	00e5f7b3          	and	a5,a1,a4
  last = PGROUNDDOWN(va + size - 1);
    8000055c:	fff58993          	add	s3,a1,-1
    80000560:	99b2                	add	s3,s3,a2
    80000562:	00e9f9b3          	and	s3,s3,a4
  a = PGROUNDDOWN(va);
    80000566:	893e                	mv	s2,a5
    80000568:	40f68a33          	sub	s4,a3,a5
    if(*pte & PTE_V)
      panic("mappages: remap");
    *pte = PA2PTE(pa) | perm | PTE_V;
    if(a == last)
      break;
    a += PGSIZE;
    8000056c:	6b85                	lui	s7,0x1
    8000056e:	014904b3          	add	s1,s2,s4
    if((pte = walk(pagetable, a, 1)) == 0)
    80000572:	4605                	li	a2,1
    80000574:	85ca                	mv	a1,s2
    80000576:	8556                	mv	a0,s5
    80000578:	00000097          	auipc	ra,0x0
    8000057c:	eda080e7          	jalr	-294(ra) # 80000452 <walk>
    80000580:	cd1d                	beqz	a0,800005be <mappages+0x84>
    if(*pte & PTE_V)
    80000582:	611c                	ld	a5,0(a0)
    80000584:	8b85                	and	a5,a5,1
    80000586:	e785                	bnez	a5,800005ae <mappages+0x74>
    *pte = PA2PTE(pa) | perm | PTE_V;
    80000588:	80b1                	srl	s1,s1,0xc
    8000058a:	04aa                	sll	s1,s1,0xa
    8000058c:	0164e4b3          	or	s1,s1,s6
    80000590:	0014e493          	or	s1,s1,1
    80000594:	e104                	sd	s1,0(a0)
    if(a == last)
    80000596:	05390063          	beq	s2,s3,800005d6 <mappages+0x9c>
    a += PGSIZE;
    8000059a:	995e                	add	s2,s2,s7
    if((pte = walk(pagetable, a, 1)) == 0)
    8000059c:	bfc9                	j	8000056e <mappages+0x34>
    panic("mappages: size");
    8000059e:	00008517          	auipc	a0,0x8
    800005a2:	aba50513          	add	a0,a0,-1350 # 80008058 <etext+0x58>
    800005a6:	00005097          	auipc	ra,0x5
    800005aa:	676080e7          	jalr	1654(ra) # 80005c1c <panic>
      panic("mappages: remap");
    800005ae:	00008517          	auipc	a0,0x8
    800005b2:	aba50513          	add	a0,a0,-1350 # 80008068 <etext+0x68>
    800005b6:	00005097          	auipc	ra,0x5
    800005ba:	666080e7          	jalr	1638(ra) # 80005c1c <panic>
      return -1;
    800005be:	557d                	li	a0,-1
    pa += PGSIZE;
  }
  return 0;
}
    800005c0:	60a6                	ld	ra,72(sp)
    800005c2:	6406                	ld	s0,64(sp)
    800005c4:	74e2                	ld	s1,56(sp)
    800005c6:	7942                	ld	s2,48(sp)
    800005c8:	79a2                	ld	s3,40(sp)
    800005ca:	7a02                	ld	s4,32(sp)
    800005cc:	6ae2                	ld	s5,24(sp)
    800005ce:	6b42                	ld	s6,16(sp)
    800005d0:	6ba2                	ld	s7,8(sp)
    800005d2:	6161                	add	sp,sp,80
    800005d4:	8082                	ret
  return 0;
    800005d6:	4501                	li	a0,0
    800005d8:	b7e5                	j	800005c0 <mappages+0x86>

00000000800005da <kvmmap>:
{
    800005da:	1141                	add	sp,sp,-16
    800005dc:	e406                	sd	ra,8(sp)
    800005de:	e022                	sd	s0,0(sp)
    800005e0:	0800                	add	s0,sp,16
    800005e2:	87b6                	mv	a5,a3
  if(mappages(kpgtbl, va, sz, pa, perm) != 0)
    800005e4:	86b2                	mv	a3,a2
    800005e6:	863e                	mv	a2,a5
    800005e8:	00000097          	auipc	ra,0x0
    800005ec:	f52080e7          	jalr	-174(ra) # 8000053a <mappages>
    800005f0:	e509                	bnez	a0,800005fa <kvmmap+0x20>
}
    800005f2:	60a2                	ld	ra,8(sp)
    800005f4:	6402                	ld	s0,0(sp)
    800005f6:	0141                	add	sp,sp,16
    800005f8:	8082                	ret
    panic("kvmmap");
    800005fa:	00008517          	auipc	a0,0x8
    800005fe:	a7e50513          	add	a0,a0,-1410 # 80008078 <etext+0x78>
    80000602:	00005097          	auipc	ra,0x5
    80000606:	61a080e7          	jalr	1562(ra) # 80005c1c <panic>

000000008000060a <kvmmake>:
{
    8000060a:	1101                	add	sp,sp,-32
    8000060c:	ec06                	sd	ra,24(sp)
    8000060e:	e822                	sd	s0,16(sp)
    80000610:	e426                	sd	s1,8(sp)
    80000612:	e04a                	sd	s2,0(sp)
    80000614:	1000                	add	s0,sp,32
  kpgtbl = (pagetable_t) kalloc();
    80000616:	00000097          	auipc	ra,0x0
    8000061a:	b04080e7          	jalr	-1276(ra) # 8000011a <kalloc>
    8000061e:	84aa                	mv	s1,a0
  memset(kpgtbl, 0, PGSIZE);
    80000620:	6605                	lui	a2,0x1
    80000622:	4581                	li	a1,0
    80000624:	00000097          	auipc	ra,0x0
    80000628:	b56080e7          	jalr	-1194(ra) # 8000017a <memset>
  kvmmap(kpgtbl, UART0, UART0, PGSIZE, PTE_R | PTE_W);
    8000062c:	4719                	li	a4,6
    8000062e:	6685                	lui	a3,0x1
    80000630:	10000637          	lui	a2,0x10000
    80000634:	100005b7          	lui	a1,0x10000
    80000638:	8526                	mv	a0,s1
    8000063a:	00000097          	auipc	ra,0x0
    8000063e:	fa0080e7          	jalr	-96(ra) # 800005da <kvmmap>
  kvmmap(kpgtbl, VIRTIO0, VIRTIO0, PGSIZE, PTE_R | PTE_W);
    80000642:	4719                	li	a4,6
    80000644:	6685                	lui	a3,0x1
    80000646:	10001637          	lui	a2,0x10001
    8000064a:	100015b7          	lui	a1,0x10001
    8000064e:	8526                	mv	a0,s1
    80000650:	00000097          	auipc	ra,0x0
    80000654:	f8a080e7          	jalr	-118(ra) # 800005da <kvmmap>
  kvmmap(kpgtbl, PLIC, PLIC, 0x400000, PTE_R | PTE_W);
    80000658:	4719                	li	a4,6
    8000065a:	004006b7          	lui	a3,0x400
    8000065e:	0c000637          	lui	a2,0xc000
    80000662:	0c0005b7          	lui	a1,0xc000
    80000666:	8526                	mv	a0,s1
    80000668:	00000097          	auipc	ra,0x0
    8000066c:	f72080e7          	jalr	-142(ra) # 800005da <kvmmap>
  kvmmap(kpgtbl, KERNBASE, KERNBASE, (uint64)etext-KERNBASE, PTE_R | PTE_X);
    80000670:	00008917          	auipc	s2,0x8
    80000674:	99090913          	add	s2,s2,-1648 # 80008000 <etext>
    80000678:	4729                	li	a4,10
    8000067a:	80008697          	auipc	a3,0x80008
    8000067e:	98668693          	add	a3,a3,-1658 # 8000 <_entry-0x7fff8000>
    80000682:	4605                	li	a2,1
    80000684:	067e                	sll	a2,a2,0x1f
    80000686:	85b2                	mv	a1,a2
    80000688:	8526                	mv	a0,s1
    8000068a:	00000097          	auipc	ra,0x0
    8000068e:	f50080e7          	jalr	-176(ra) # 800005da <kvmmap>
  kvmmap(kpgtbl, (uint64)etext, (uint64)etext, PHYSTOP-(uint64)etext, PTE_R | PTE_W);
    80000692:	46c5                	li	a3,17
    80000694:	06ee                	sll	a3,a3,0x1b
    80000696:	4719                	li	a4,6
    80000698:	412686b3          	sub	a3,a3,s2
    8000069c:	864a                	mv	a2,s2
    8000069e:	85ca                	mv	a1,s2
    800006a0:	8526                	mv	a0,s1
    800006a2:	00000097          	auipc	ra,0x0
    800006a6:	f38080e7          	jalr	-200(ra) # 800005da <kvmmap>
  kvmmap(kpgtbl, TRAMPOLINE, (uint64)trampoline, PGSIZE, PTE_R | PTE_X);
    800006aa:	4729                	li	a4,10
    800006ac:	6685                	lui	a3,0x1
    800006ae:	00007617          	auipc	a2,0x7
    800006b2:	95260613          	add	a2,a2,-1710 # 80007000 <_trampoline>
    800006b6:	040005b7          	lui	a1,0x4000
    800006ba:	15fd                	add	a1,a1,-1 # 3ffffff <_entry-0x7c000001>
    800006bc:	05b2                	sll	a1,a1,0xc
    800006be:	8526                	mv	a0,s1
    800006c0:	00000097          	auipc	ra,0x0
    800006c4:	f1a080e7          	jalr	-230(ra) # 800005da <kvmmap>
  proc_mapstacks(kpgtbl);
    800006c8:	8526                	mv	a0,s1
    800006ca:	00000097          	auipc	ra,0x0
    800006ce:	624080e7          	jalr	1572(ra) # 80000cee <proc_mapstacks>
}
    800006d2:	8526                	mv	a0,s1
    800006d4:	60e2                	ld	ra,24(sp)
    800006d6:	6442                	ld	s0,16(sp)
    800006d8:	64a2                	ld	s1,8(sp)
    800006da:	6902                	ld	s2,0(sp)
    800006dc:	6105                	add	sp,sp,32
    800006de:	8082                	ret

00000000800006e0 <kvminit>:
{
    800006e0:	1141                	add	sp,sp,-16
    800006e2:	e406                	sd	ra,8(sp)
    800006e4:	e022                	sd	s0,0(sp)
    800006e6:	0800                	add	s0,sp,16
  kernel_pagetable = kvmmake();
    800006e8:	00000097          	auipc	ra,0x0
    800006ec:	f22080e7          	jalr	-222(ra) # 8000060a <kvmmake>
    800006f0:	00009797          	auipc	a5,0x9
    800006f4:	90a7bc23          	sd	a0,-1768(a5) # 80009008 <kernel_pagetable>
}
    800006f8:	60a2                	ld	ra,8(sp)
    800006fa:	6402                	ld	s0,0(sp)
    800006fc:	0141                	add	sp,sp,16
    800006fe:	8082                	ret

0000000080000700 <uvmunmap>:
// Remove npages of mappings starting from va. va must be
// page-aligned. The mappings must exist.
// Optionally free the physical memory.
void
uvmunmap(pagetable_t pagetable, uint64 va, uint64 npages, int do_free)
{
    80000700:	715d                	add	sp,sp,-80
    80000702:	e486                	sd	ra,72(sp)
    80000704:	e0a2                	sd	s0,64(sp)
    80000706:	0880                	add	s0,sp,80
  uint64 a;
  pte_t *pte;

  if((va % PGSIZE) != 0)
    80000708:	03459793          	sll	a5,a1,0x34
    8000070c:	e39d                	bnez	a5,80000732 <uvmunmap+0x32>
    8000070e:	f84a                	sd	s2,48(sp)
    80000710:	f44e                	sd	s3,40(sp)
    80000712:	f052                	sd	s4,32(sp)
    80000714:	ec56                	sd	s5,24(sp)
    80000716:	e85a                	sd	s6,16(sp)
    80000718:	e45e                	sd	s7,8(sp)
    8000071a:	8a2a                	mv	s4,a0
    8000071c:	892e                	mv	s2,a1
    8000071e:	8ab6                	mv	s5,a3
    panic("uvmunmap: not aligned");

  for(a = va; a < va + npages*PGSIZE; a += PGSIZE){
    80000720:	0632                	sll	a2,a2,0xc
    80000722:	00b609b3          	add	s3,a2,a1
    if((pte = walk(pagetable, a, 0)) == 0)
      panic("uvmunmap: walk");
    if((*pte & PTE_V) == 0)
      panic("uvmunmap: not mapped");
    if(PTE_FLAGS(*pte) == PTE_V)
    80000726:	4b85                	li	s7,1
  for(a = va; a < va + npages*PGSIZE; a += PGSIZE){
    80000728:	6b05                	lui	s6,0x1
    8000072a:	0935fb63          	bgeu	a1,s3,800007c0 <uvmunmap+0xc0>
    8000072e:	fc26                	sd	s1,56(sp)
    80000730:	a8a9                	j	8000078a <uvmunmap+0x8a>
    80000732:	fc26                	sd	s1,56(sp)
    80000734:	f84a                	sd	s2,48(sp)
    80000736:	f44e                	sd	s3,40(sp)
    80000738:	f052                	sd	s4,32(sp)
    8000073a:	ec56                	sd	s5,24(sp)
    8000073c:	e85a                	sd	s6,16(sp)
    8000073e:	e45e                	sd	s7,8(sp)
    panic("uvmunmap: not aligned");
    80000740:	00008517          	auipc	a0,0x8
    80000744:	94050513          	add	a0,a0,-1728 # 80008080 <etext+0x80>
    80000748:	00005097          	auipc	ra,0x5
    8000074c:	4d4080e7          	jalr	1236(ra) # 80005c1c <panic>
      panic("uvmunmap: walk");
    80000750:	00008517          	auipc	a0,0x8
    80000754:	94850513          	add	a0,a0,-1720 # 80008098 <etext+0x98>
    80000758:	00005097          	auipc	ra,0x5
    8000075c:	4c4080e7          	jalr	1220(ra) # 80005c1c <panic>
      panic("uvmunmap: not mapped");
    80000760:	00008517          	auipc	a0,0x8
    80000764:	94850513          	add	a0,a0,-1720 # 800080a8 <etext+0xa8>
    80000768:	00005097          	auipc	ra,0x5
    8000076c:	4b4080e7          	jalr	1204(ra) # 80005c1c <panic>
      panic("uvmunmap: not a leaf");
    80000770:	00008517          	auipc	a0,0x8
    80000774:	95050513          	add	a0,a0,-1712 # 800080c0 <etext+0xc0>
    80000778:	00005097          	auipc	ra,0x5
    8000077c:	4a4080e7          	jalr	1188(ra) # 80005c1c <panic>
    if(do_free){
      uint64 pa = PTE2PA(*pte);
      kfree((void*)pa);
    }
    *pte = 0;
    80000780:	0004b023          	sd	zero,0(s1)
  for(a = va; a < va + npages*PGSIZE; a += PGSIZE){
    80000784:	995a                	add	s2,s2,s6
    80000786:	03397c63          	bgeu	s2,s3,800007be <uvmunmap+0xbe>
    if((pte = walk(pagetable, a, 0)) == 0)
    8000078a:	4601                	li	a2,0
    8000078c:	85ca                	mv	a1,s2
    8000078e:	8552                	mv	a0,s4
    80000790:	00000097          	auipc	ra,0x0
    80000794:	cc2080e7          	jalr	-830(ra) # 80000452 <walk>
    80000798:	84aa                	mv	s1,a0
    8000079a:	d95d                	beqz	a0,80000750 <uvmunmap+0x50>
    if((*pte & PTE_V) == 0)
    8000079c:	6108                	ld	a0,0(a0)
    8000079e:	00157793          	and	a5,a0,1
    800007a2:	dfdd                	beqz	a5,80000760 <uvmunmap+0x60>
    if(PTE_FLAGS(*pte) == PTE_V)
    800007a4:	3ff57793          	and	a5,a0,1023
    800007a8:	fd7784e3          	beq	a5,s7,80000770 <uvmunmap+0x70>
    if(do_free){
    800007ac:	fc0a8ae3          	beqz	s5,80000780 <uvmunmap+0x80>
      uint64 pa = PTE2PA(*pte);
    800007b0:	8129                	srl	a0,a0,0xa
      kfree((void*)pa);
    800007b2:	0532                	sll	a0,a0,0xc
    800007b4:	00000097          	auipc	ra,0x0
    800007b8:	868080e7          	jalr	-1944(ra) # 8000001c <kfree>
    800007bc:	b7d1                	j	80000780 <uvmunmap+0x80>
    800007be:	74e2                	ld	s1,56(sp)
    800007c0:	7942                	ld	s2,48(sp)
    800007c2:	79a2                	ld	s3,40(sp)
    800007c4:	7a02                	ld	s4,32(sp)
    800007c6:	6ae2                	ld	s5,24(sp)
    800007c8:	6b42                	ld	s6,16(sp)
    800007ca:	6ba2                	ld	s7,8(sp)
  }
}
    800007cc:	60a6                	ld	ra,72(sp)
    800007ce:	6406                	ld	s0,64(sp)
    800007d0:	6161                	add	sp,sp,80
    800007d2:	8082                	ret

00000000800007d4 <uvmcreate>:

// create an empty user page table.
// returns 0 if out of memory.
pagetable_t
uvmcreate()
{
    800007d4:	1101                	add	sp,sp,-32
    800007d6:	ec06                	sd	ra,24(sp)
    800007d8:	e822                	sd	s0,16(sp)
    800007da:	e426                	sd	s1,8(sp)
    800007dc:	1000                	add	s0,sp,32
  pagetable_t pagetable;
  pagetable = (pagetable_t) kalloc();
    800007de:	00000097          	auipc	ra,0x0
    800007e2:	93c080e7          	jalr	-1732(ra) # 8000011a <kalloc>
    800007e6:	84aa                	mv	s1,a0
  if(pagetable == 0)
    800007e8:	c519                	beqz	a0,800007f6 <uvmcreate+0x22>
    return 0;
  memset(pagetable, 0, PGSIZE);
    800007ea:	6605                	lui	a2,0x1
    800007ec:	4581                	li	a1,0
    800007ee:	00000097          	auipc	ra,0x0
    800007f2:	98c080e7          	jalr	-1652(ra) # 8000017a <memset>
  return pagetable;
}
    800007f6:	8526                	mv	a0,s1
    800007f8:	60e2                	ld	ra,24(sp)
    800007fa:	6442                	ld	s0,16(sp)
    800007fc:	64a2                	ld	s1,8(sp)
    800007fe:	6105                	add	sp,sp,32
    80000800:	8082                	ret

0000000080000802 <uvminit>:
// Load the user initcode into address 0 of pagetable,
// for the very first process.
// sz must be less than a page.
void
uvminit(pagetable_t pagetable, uchar *src, uint sz)
{
    80000802:	7179                	add	sp,sp,-48
    80000804:	f406                	sd	ra,40(sp)
    80000806:	f022                	sd	s0,32(sp)
    80000808:	ec26                	sd	s1,24(sp)
    8000080a:	e84a                	sd	s2,16(sp)
    8000080c:	e44e                	sd	s3,8(sp)
    8000080e:	e052                	sd	s4,0(sp)
    80000810:	1800                	add	s0,sp,48
  char *mem;

  if(sz >= PGSIZE)
    80000812:	6785                	lui	a5,0x1
    80000814:	04f67863          	bgeu	a2,a5,80000864 <uvminit+0x62>
    80000818:	8a2a                	mv	s4,a0
    8000081a:	89ae                	mv	s3,a1
    8000081c:	84b2                	mv	s1,a2
    panic("inituvm: more than a page");
  mem = kalloc();
    8000081e:	00000097          	auipc	ra,0x0
    80000822:	8fc080e7          	jalr	-1796(ra) # 8000011a <kalloc>
    80000826:	892a                	mv	s2,a0
  memset(mem, 0, PGSIZE);
    80000828:	6605                	lui	a2,0x1
    8000082a:	4581                	li	a1,0
    8000082c:	00000097          	auipc	ra,0x0
    80000830:	94e080e7          	jalr	-1714(ra) # 8000017a <memset>
  mappages(pagetable, 0, PGSIZE, (uint64)mem, PTE_W|PTE_R|PTE_X|PTE_U);
    80000834:	4779                	li	a4,30
    80000836:	86ca                	mv	a3,s2
    80000838:	6605                	lui	a2,0x1
    8000083a:	4581                	li	a1,0
    8000083c:	8552                	mv	a0,s4
    8000083e:	00000097          	auipc	ra,0x0
    80000842:	cfc080e7          	jalr	-772(ra) # 8000053a <mappages>
  memmove(mem, src, sz);
    80000846:	8626                	mv	a2,s1
    80000848:	85ce                	mv	a1,s3
    8000084a:	854a                	mv	a0,s2
    8000084c:	00000097          	auipc	ra,0x0
    80000850:	98a080e7          	jalr	-1654(ra) # 800001d6 <memmove>
}
    80000854:	70a2                	ld	ra,40(sp)
    80000856:	7402                	ld	s0,32(sp)
    80000858:	64e2                	ld	s1,24(sp)
    8000085a:	6942                	ld	s2,16(sp)
    8000085c:	69a2                	ld	s3,8(sp)
    8000085e:	6a02                	ld	s4,0(sp)
    80000860:	6145                	add	sp,sp,48
    80000862:	8082                	ret
    panic("inituvm: more than a page");
    80000864:	00008517          	auipc	a0,0x8
    80000868:	87450513          	add	a0,a0,-1932 # 800080d8 <etext+0xd8>
    8000086c:	00005097          	auipc	ra,0x5
    80000870:	3b0080e7          	jalr	944(ra) # 80005c1c <panic>

0000000080000874 <uvmdealloc>:
// newsz.  oldsz and newsz need not be page-aligned, nor does newsz
// need to be less than oldsz.  oldsz can be larger than the actual
// process size.  Returns the new process size.
uint64
uvmdealloc(pagetable_t pagetable, uint64 oldsz, uint64 newsz)
{
    80000874:	1101                	add	sp,sp,-32
    80000876:	ec06                	sd	ra,24(sp)
    80000878:	e822                	sd	s0,16(sp)
    8000087a:	e426                	sd	s1,8(sp)
    8000087c:	1000                	add	s0,sp,32
  if(newsz >= oldsz)
    return oldsz;
    8000087e:	84ae                	mv	s1,a1
  if(newsz >= oldsz)
    80000880:	00b67d63          	bgeu	a2,a1,8000089a <uvmdealloc+0x26>
    80000884:	84b2                	mv	s1,a2

  if(PGROUNDUP(newsz) < PGROUNDUP(oldsz)){
    80000886:	6785                	lui	a5,0x1
    80000888:	17fd                	add	a5,a5,-1 # fff <_entry-0x7ffff001>
    8000088a:	00f60733          	add	a4,a2,a5
    8000088e:	76fd                	lui	a3,0xfffff
    80000890:	8f75                	and	a4,a4,a3
    80000892:	97ae                	add	a5,a5,a1
    80000894:	8ff5                	and	a5,a5,a3
    80000896:	00f76863          	bltu	a4,a5,800008a6 <uvmdealloc+0x32>
    int npages = (PGROUNDUP(oldsz) - PGROUNDUP(newsz)) / PGSIZE;
    uvmunmap(pagetable, PGROUNDUP(newsz), npages, 1);
  }

  return newsz;
}
    8000089a:	8526                	mv	a0,s1
    8000089c:	60e2                	ld	ra,24(sp)
    8000089e:	6442                	ld	s0,16(sp)
    800008a0:	64a2                	ld	s1,8(sp)
    800008a2:	6105                	add	sp,sp,32
    800008a4:	8082                	ret
    int npages = (PGROUNDUP(oldsz) - PGROUNDUP(newsz)) / PGSIZE;
    800008a6:	8f99                	sub	a5,a5,a4
    800008a8:	83b1                	srl	a5,a5,0xc
    uvmunmap(pagetable, PGROUNDUP(newsz), npages, 1);
    800008aa:	4685                	li	a3,1
    800008ac:	0007861b          	sext.w	a2,a5
    800008b0:	85ba                	mv	a1,a4
    800008b2:	00000097          	auipc	ra,0x0
    800008b6:	e4e080e7          	jalr	-434(ra) # 80000700 <uvmunmap>
    800008ba:	b7c5                	j	8000089a <uvmdealloc+0x26>

00000000800008bc <uvmalloc>:
  if(newsz < oldsz)
    800008bc:	0ab66563          	bltu	a2,a1,80000966 <uvmalloc+0xaa>
{
    800008c0:	7139                	add	sp,sp,-64
    800008c2:	fc06                	sd	ra,56(sp)
    800008c4:	f822                	sd	s0,48(sp)
    800008c6:	ec4e                	sd	s3,24(sp)
    800008c8:	e852                	sd	s4,16(sp)
    800008ca:	e456                	sd	s5,8(sp)
    800008cc:	0080                	add	s0,sp,64
    800008ce:	8aaa                	mv	s5,a0
    800008d0:	8a32                	mv	s4,a2
  oldsz = PGROUNDUP(oldsz);
    800008d2:	6785                	lui	a5,0x1
    800008d4:	17fd                	add	a5,a5,-1 # fff <_entry-0x7ffff001>
    800008d6:	95be                	add	a1,a1,a5
    800008d8:	77fd                	lui	a5,0xfffff
    800008da:	00f5f9b3          	and	s3,a1,a5
  for(a = oldsz; a < newsz; a += PGSIZE){
    800008de:	08c9f663          	bgeu	s3,a2,8000096a <uvmalloc+0xae>
    800008e2:	f426                	sd	s1,40(sp)
    800008e4:	f04a                	sd	s2,32(sp)
    800008e6:	894e                	mv	s2,s3
    mem = kalloc();
    800008e8:	00000097          	auipc	ra,0x0
    800008ec:	832080e7          	jalr	-1998(ra) # 8000011a <kalloc>
    800008f0:	84aa                	mv	s1,a0
    if(mem == 0){
    800008f2:	c90d                	beqz	a0,80000924 <uvmalloc+0x68>
    memset(mem, 0, PGSIZE);
    800008f4:	6605                	lui	a2,0x1
    800008f6:	4581                	li	a1,0
    800008f8:	00000097          	auipc	ra,0x0
    800008fc:	882080e7          	jalr	-1918(ra) # 8000017a <memset>
    if(mappages(pagetable, a, PGSIZE, (uint64)mem, PTE_W|PTE_X|PTE_R|PTE_U) != 0){
    80000900:	4779                	li	a4,30
    80000902:	86a6                	mv	a3,s1
    80000904:	6605                	lui	a2,0x1
    80000906:	85ca                	mv	a1,s2
    80000908:	8556                	mv	a0,s5
    8000090a:	00000097          	auipc	ra,0x0
    8000090e:	c30080e7          	jalr	-976(ra) # 8000053a <mappages>
    80000912:	e915                	bnez	a0,80000946 <uvmalloc+0x8a>
  for(a = oldsz; a < newsz; a += PGSIZE){
    80000914:	6785                	lui	a5,0x1
    80000916:	993e                	add	s2,s2,a5
    80000918:	fd4968e3          	bltu	s2,s4,800008e8 <uvmalloc+0x2c>
  return newsz;
    8000091c:	8552                	mv	a0,s4
    8000091e:	74a2                	ld	s1,40(sp)
    80000920:	7902                	ld	s2,32(sp)
    80000922:	a819                	j	80000938 <uvmalloc+0x7c>
      uvmdealloc(pagetable, a, oldsz);
    80000924:	864e                	mv	a2,s3
    80000926:	85ca                	mv	a1,s2
    80000928:	8556                	mv	a0,s5
    8000092a:	00000097          	auipc	ra,0x0
    8000092e:	f4a080e7          	jalr	-182(ra) # 80000874 <uvmdealloc>
      return 0;
    80000932:	4501                	li	a0,0
    80000934:	74a2                	ld	s1,40(sp)
    80000936:	7902                	ld	s2,32(sp)
}
    80000938:	70e2                	ld	ra,56(sp)
    8000093a:	7442                	ld	s0,48(sp)
    8000093c:	69e2                	ld	s3,24(sp)
    8000093e:	6a42                	ld	s4,16(sp)
    80000940:	6aa2                	ld	s5,8(sp)
    80000942:	6121                	add	sp,sp,64
    80000944:	8082                	ret
      kfree(mem);
    80000946:	8526                	mv	a0,s1
    80000948:	fffff097          	auipc	ra,0xfffff
    8000094c:	6d4080e7          	jalr	1748(ra) # 8000001c <kfree>
      uvmdealloc(pagetable, a, oldsz);
    80000950:	864e                	mv	a2,s3
    80000952:	85ca                	mv	a1,s2
    80000954:	8556                	mv	a0,s5
    80000956:	00000097          	auipc	ra,0x0
    8000095a:	f1e080e7          	jalr	-226(ra) # 80000874 <uvmdealloc>
      return 0;
    8000095e:	4501                	li	a0,0
    80000960:	74a2                	ld	s1,40(sp)
    80000962:	7902                	ld	s2,32(sp)
    80000964:	bfd1                	j	80000938 <uvmalloc+0x7c>
    return oldsz;
    80000966:	852e                	mv	a0,a1
}
    80000968:	8082                	ret
  return newsz;
    8000096a:	8532                	mv	a0,a2
    8000096c:	b7f1                	j	80000938 <uvmalloc+0x7c>

000000008000096e <freewalk>:

// Recursively free page-table pages.
// All leaf mappings must already have been removed.
void
freewalk(pagetable_t pagetable)
{
    8000096e:	7179                	add	sp,sp,-48
    80000970:	f406                	sd	ra,40(sp)
    80000972:	f022                	sd	s0,32(sp)
    80000974:	ec26                	sd	s1,24(sp)
    80000976:	e84a                	sd	s2,16(sp)
    80000978:	e44e                	sd	s3,8(sp)
    8000097a:	e052                	sd	s4,0(sp)
    8000097c:	1800                	add	s0,sp,48
    8000097e:	8a2a                	mv	s4,a0
  // there are 2^9 = 512 PTEs in a page table.
  for(int i = 0; i < 512; i++){
    80000980:	84aa                	mv	s1,a0
    80000982:	6905                	lui	s2,0x1
    80000984:	992a                	add	s2,s2,a0
    pte_t pte = pagetable[i];
    if((pte & PTE_V) && (pte & (PTE_R|PTE_W|PTE_X)) == 0){
    80000986:	4985                	li	s3,1
    80000988:	a829                	j	800009a2 <freewalk+0x34>
      // this PTE points to a lower-level page table.
      uint64 child = PTE2PA(pte);
    8000098a:	83a9                	srl	a5,a5,0xa
      freewalk((pagetable_t)child);
    8000098c:	00c79513          	sll	a0,a5,0xc
    80000990:	00000097          	auipc	ra,0x0
    80000994:	fde080e7          	jalr	-34(ra) # 8000096e <freewalk>
      pagetable[i] = 0;
    80000998:	0004b023          	sd	zero,0(s1)
  for(int i = 0; i < 512; i++){
    8000099c:	04a1                	add	s1,s1,8
    8000099e:	03248163          	beq	s1,s2,800009c0 <freewalk+0x52>
    pte_t pte = pagetable[i];
    800009a2:	609c                	ld	a5,0(s1)
    if((pte & PTE_V) && (pte & (PTE_R|PTE_W|PTE_X)) == 0){
    800009a4:	00f7f713          	and	a4,a5,15
    800009a8:	ff3701e3          	beq	a4,s3,8000098a <freewalk+0x1c>
    } else if(pte & PTE_V){
    800009ac:	8b85                	and	a5,a5,1
    800009ae:	d7fd                	beqz	a5,8000099c <freewalk+0x2e>
      panic("freewalk: leaf");
    800009b0:	00007517          	auipc	a0,0x7
    800009b4:	74850513          	add	a0,a0,1864 # 800080f8 <etext+0xf8>
    800009b8:	00005097          	auipc	ra,0x5
    800009bc:	264080e7          	jalr	612(ra) # 80005c1c <panic>
    }
  }
  kfree((void*)pagetable);
    800009c0:	8552                	mv	a0,s4
    800009c2:	fffff097          	auipc	ra,0xfffff
    800009c6:	65a080e7          	jalr	1626(ra) # 8000001c <kfree>
}
    800009ca:	70a2                	ld	ra,40(sp)
    800009cc:	7402                	ld	s0,32(sp)
    800009ce:	64e2                	ld	s1,24(sp)
    800009d0:	6942                	ld	s2,16(sp)
    800009d2:	69a2                	ld	s3,8(sp)
    800009d4:	6a02                	ld	s4,0(sp)
    800009d6:	6145                	add	sp,sp,48
    800009d8:	8082                	ret

00000000800009da <uvmfree>:

// Free user memory pages,
// then free page-table pages.
void
uvmfree(pagetable_t pagetable, uint64 sz)
{
    800009da:	1101                	add	sp,sp,-32
    800009dc:	ec06                	sd	ra,24(sp)
    800009de:	e822                	sd	s0,16(sp)
    800009e0:	e426                	sd	s1,8(sp)
    800009e2:	1000                	add	s0,sp,32
    800009e4:	84aa                	mv	s1,a0
  if(sz > 0)
    800009e6:	e999                	bnez	a1,800009fc <uvmfree+0x22>
    uvmunmap(pagetable, 0, PGROUNDUP(sz)/PGSIZE, 1);
  freewalk(pagetable);
    800009e8:	8526                	mv	a0,s1
    800009ea:	00000097          	auipc	ra,0x0
    800009ee:	f84080e7          	jalr	-124(ra) # 8000096e <freewalk>
}
    800009f2:	60e2                	ld	ra,24(sp)
    800009f4:	6442                	ld	s0,16(sp)
    800009f6:	64a2                	ld	s1,8(sp)
    800009f8:	6105                	add	sp,sp,32
    800009fa:	8082                	ret
    uvmunmap(pagetable, 0, PGROUNDUP(sz)/PGSIZE, 1);
    800009fc:	6785                	lui	a5,0x1
    800009fe:	17fd                	add	a5,a5,-1 # fff <_entry-0x7ffff001>
    80000a00:	95be                	add	a1,a1,a5
    80000a02:	4685                	li	a3,1
    80000a04:	00c5d613          	srl	a2,a1,0xc
    80000a08:	4581                	li	a1,0
    80000a0a:	00000097          	auipc	ra,0x0
    80000a0e:	cf6080e7          	jalr	-778(ra) # 80000700 <uvmunmap>
    80000a12:	bfd9                	j	800009e8 <uvmfree+0xe>

0000000080000a14 <uvmcopy>:
  pte_t *pte;
  uint64 pa, i;
  uint flags;
  char *mem;

  for(i = 0; i < sz; i += PGSIZE){
    80000a14:	c679                	beqz	a2,80000ae2 <uvmcopy+0xce>
{
    80000a16:	715d                	add	sp,sp,-80
    80000a18:	e486                	sd	ra,72(sp)
    80000a1a:	e0a2                	sd	s0,64(sp)
    80000a1c:	fc26                	sd	s1,56(sp)
    80000a1e:	f84a                	sd	s2,48(sp)
    80000a20:	f44e                	sd	s3,40(sp)
    80000a22:	f052                	sd	s4,32(sp)
    80000a24:	ec56                	sd	s5,24(sp)
    80000a26:	e85a                	sd	s6,16(sp)
    80000a28:	e45e                	sd	s7,8(sp)
    80000a2a:	0880                	add	s0,sp,80
    80000a2c:	8b2a                	mv	s6,a0
    80000a2e:	8aae                	mv	s5,a1
    80000a30:	8a32                	mv	s4,a2
  for(i = 0; i < sz; i += PGSIZE){
    80000a32:	4981                	li	s3,0
    if((pte = walk(old, i, 0)) == 0)
    80000a34:	4601                	li	a2,0
    80000a36:	85ce                	mv	a1,s3
    80000a38:	855a                	mv	a0,s6
    80000a3a:	00000097          	auipc	ra,0x0
    80000a3e:	a18080e7          	jalr	-1512(ra) # 80000452 <walk>
    80000a42:	c531                	beqz	a0,80000a8e <uvmcopy+0x7a>
      panic("uvmcopy: pte should exist");
    if((*pte & PTE_V) == 0)
    80000a44:	6118                	ld	a4,0(a0)
    80000a46:	00177793          	and	a5,a4,1
    80000a4a:	cbb1                	beqz	a5,80000a9e <uvmcopy+0x8a>
      panic("uvmcopy: page not present");
    pa = PTE2PA(*pte);
    80000a4c:	00a75593          	srl	a1,a4,0xa
    80000a50:	00c59b93          	sll	s7,a1,0xc
    flags = PTE_FLAGS(*pte);
    80000a54:	3ff77493          	and	s1,a4,1023
    if((mem = kalloc()) == 0)
    80000a58:	fffff097          	auipc	ra,0xfffff
    80000a5c:	6c2080e7          	jalr	1730(ra) # 8000011a <kalloc>
    80000a60:	892a                	mv	s2,a0
    80000a62:	c939                	beqz	a0,80000ab8 <uvmcopy+0xa4>
      goto err;
    memmove(mem, (char*)pa, PGSIZE);
    80000a64:	6605                	lui	a2,0x1
    80000a66:	85de                	mv	a1,s7
    80000a68:	fffff097          	auipc	ra,0xfffff
    80000a6c:	76e080e7          	jalr	1902(ra) # 800001d6 <memmove>
    if(mappages(new, i, PGSIZE, (uint64)mem, flags) != 0){
    80000a70:	8726                	mv	a4,s1
    80000a72:	86ca                	mv	a3,s2
    80000a74:	6605                	lui	a2,0x1
    80000a76:	85ce                	mv	a1,s3
    80000a78:	8556                	mv	a0,s5
    80000a7a:	00000097          	auipc	ra,0x0
    80000a7e:	ac0080e7          	jalr	-1344(ra) # 8000053a <mappages>
    80000a82:	e515                	bnez	a0,80000aae <uvmcopy+0x9a>
  for(i = 0; i < sz; i += PGSIZE){
    80000a84:	6785                	lui	a5,0x1
    80000a86:	99be                	add	s3,s3,a5
    80000a88:	fb49e6e3          	bltu	s3,s4,80000a34 <uvmcopy+0x20>
    80000a8c:	a081                	j	80000acc <uvmcopy+0xb8>
      panic("uvmcopy: pte should exist");
    80000a8e:	00007517          	auipc	a0,0x7
    80000a92:	67a50513          	add	a0,a0,1658 # 80008108 <etext+0x108>
    80000a96:	00005097          	auipc	ra,0x5
    80000a9a:	186080e7          	jalr	390(ra) # 80005c1c <panic>
      panic("uvmcopy: page not present");
    80000a9e:	00007517          	auipc	a0,0x7
    80000aa2:	68a50513          	add	a0,a0,1674 # 80008128 <etext+0x128>
    80000aa6:	00005097          	auipc	ra,0x5
    80000aaa:	176080e7          	jalr	374(ra) # 80005c1c <panic>
      kfree(mem);
    80000aae:	854a                	mv	a0,s2
    80000ab0:	fffff097          	auipc	ra,0xfffff
    80000ab4:	56c080e7          	jalr	1388(ra) # 8000001c <kfree>
    }
  }
  return 0;

 err:
  uvmunmap(new, 0, i / PGSIZE, 1);
    80000ab8:	4685                	li	a3,1
    80000aba:	00c9d613          	srl	a2,s3,0xc
    80000abe:	4581                	li	a1,0
    80000ac0:	8556                	mv	a0,s5
    80000ac2:	00000097          	auipc	ra,0x0
    80000ac6:	c3e080e7          	jalr	-962(ra) # 80000700 <uvmunmap>
  return -1;
    80000aca:	557d                	li	a0,-1
}
    80000acc:	60a6                	ld	ra,72(sp)
    80000ace:	6406                	ld	s0,64(sp)
    80000ad0:	74e2                	ld	s1,56(sp)
    80000ad2:	7942                	ld	s2,48(sp)
    80000ad4:	79a2                	ld	s3,40(sp)
    80000ad6:	7a02                	ld	s4,32(sp)
    80000ad8:	6ae2                	ld	s5,24(sp)
    80000ada:	6b42                	ld	s6,16(sp)
    80000adc:	6ba2                	ld	s7,8(sp)
    80000ade:	6161                	add	sp,sp,80
    80000ae0:	8082                	ret
  return 0;
    80000ae2:	4501                	li	a0,0
}
    80000ae4:	8082                	ret

0000000080000ae6 <uvmclear>:

// mark a PTE invalid for user access.
// used by exec for the user stack guard page.
void
uvmclear(pagetable_t pagetable, uint64 va)
{
    80000ae6:	1141                	add	sp,sp,-16
    80000ae8:	e406                	sd	ra,8(sp)
    80000aea:	e022                	sd	s0,0(sp)
    80000aec:	0800                	add	s0,sp,16
  pte_t *pte;
  
  pte = walk(pagetable, va, 0);
    80000aee:	4601                	li	a2,0
    80000af0:	00000097          	auipc	ra,0x0
    80000af4:	962080e7          	jalr	-1694(ra) # 80000452 <walk>
  if(pte == 0)
    80000af8:	c901                	beqz	a0,80000b08 <uvmclear+0x22>
    panic("uvmclear");
  *pte &= ~PTE_U;
    80000afa:	611c                	ld	a5,0(a0)
    80000afc:	9bbd                	and	a5,a5,-17
    80000afe:	e11c                	sd	a5,0(a0)
}
    80000b00:	60a2                	ld	ra,8(sp)
    80000b02:	6402                	ld	s0,0(sp)
    80000b04:	0141                	add	sp,sp,16
    80000b06:	8082                	ret
    panic("uvmclear");
    80000b08:	00007517          	auipc	a0,0x7
    80000b0c:	64050513          	add	a0,a0,1600 # 80008148 <etext+0x148>
    80000b10:	00005097          	auipc	ra,0x5
    80000b14:	10c080e7          	jalr	268(ra) # 80005c1c <panic>

0000000080000b18 <copyout>:
int
copyout(pagetable_t pagetable, uint64 dstva, char *src, uint64 len)
{
  uint64 n, va0, pa0;

  while(len > 0){
    80000b18:	c6bd                	beqz	a3,80000b86 <copyout+0x6e>
{
    80000b1a:	715d                	add	sp,sp,-80
    80000b1c:	e486                	sd	ra,72(sp)
    80000b1e:	e0a2                	sd	s0,64(sp)
    80000b20:	fc26                	sd	s1,56(sp)
    80000b22:	f84a                	sd	s2,48(sp)
    80000b24:	f44e                	sd	s3,40(sp)
    80000b26:	f052                	sd	s4,32(sp)
    80000b28:	ec56                	sd	s5,24(sp)
    80000b2a:	e85a                	sd	s6,16(sp)
    80000b2c:	e45e                	sd	s7,8(sp)
    80000b2e:	e062                	sd	s8,0(sp)
    80000b30:	0880                	add	s0,sp,80
    80000b32:	8b2a                	mv	s6,a0
    80000b34:	8c2e                	mv	s8,a1
    80000b36:	8a32                	mv	s4,a2
    80000b38:	89b6                	mv	s3,a3
    va0 = PGROUNDDOWN(dstva);
    80000b3a:	7bfd                	lui	s7,0xfffff
    pa0 = walkaddr(pagetable, va0);
    if(pa0 == 0)
      return -1;
    n = PGSIZE - (dstva - va0);
    80000b3c:	6a85                	lui	s5,0x1
    80000b3e:	a015                	j	80000b62 <copyout+0x4a>
    if(n > len)
      n = len;
    memmove((void *)(pa0 + (dstva - va0)), src, n);
    80000b40:	9562                	add	a0,a0,s8
    80000b42:	0004861b          	sext.w	a2,s1
    80000b46:	85d2                	mv	a1,s4
    80000b48:	41250533          	sub	a0,a0,s2
    80000b4c:	fffff097          	auipc	ra,0xfffff
    80000b50:	68a080e7          	jalr	1674(ra) # 800001d6 <memmove>

    len -= n;
    80000b54:	409989b3          	sub	s3,s3,s1
    src += n;
    80000b58:	9a26                	add	s4,s4,s1
    dstva = va0 + PGSIZE;
    80000b5a:	01590c33          	add	s8,s2,s5
  while(len > 0){
    80000b5e:	02098263          	beqz	s3,80000b82 <copyout+0x6a>
    va0 = PGROUNDDOWN(dstva);
    80000b62:	017c7933          	and	s2,s8,s7
    pa0 = walkaddr(pagetable, va0);
    80000b66:	85ca                	mv	a1,s2
    80000b68:	855a                	mv	a0,s6
    80000b6a:	00000097          	auipc	ra,0x0
    80000b6e:	98e080e7          	jalr	-1650(ra) # 800004f8 <walkaddr>
    if(pa0 == 0)
    80000b72:	cd01                	beqz	a0,80000b8a <copyout+0x72>
    n = PGSIZE - (dstva - va0);
    80000b74:	418904b3          	sub	s1,s2,s8
    80000b78:	94d6                	add	s1,s1,s5
    if(n > len)
    80000b7a:	fc99f3e3          	bgeu	s3,s1,80000b40 <copyout+0x28>
    80000b7e:	84ce                	mv	s1,s3
    80000b80:	b7c1                	j	80000b40 <copyout+0x28>
  }
  return 0;
    80000b82:	4501                	li	a0,0
    80000b84:	a021                	j	80000b8c <copyout+0x74>
    80000b86:	4501                	li	a0,0
}
    80000b88:	8082                	ret
      return -1;
    80000b8a:	557d                	li	a0,-1
}
    80000b8c:	60a6                	ld	ra,72(sp)
    80000b8e:	6406                	ld	s0,64(sp)
    80000b90:	74e2                	ld	s1,56(sp)
    80000b92:	7942                	ld	s2,48(sp)
    80000b94:	79a2                	ld	s3,40(sp)
    80000b96:	7a02                	ld	s4,32(sp)
    80000b98:	6ae2                	ld	s5,24(sp)
    80000b9a:	6b42                	ld	s6,16(sp)
    80000b9c:	6ba2                	ld	s7,8(sp)
    80000b9e:	6c02                	ld	s8,0(sp)
    80000ba0:	6161                	add	sp,sp,80
    80000ba2:	8082                	ret

0000000080000ba4 <copyin>:
int
copyin(pagetable_t pagetable, char *dst, uint64 srcva, uint64 len)
{
  uint64 n, va0, pa0;

  while(len > 0){
    80000ba4:	caa5                	beqz	a3,80000c14 <copyin+0x70>
{
    80000ba6:	715d                	add	sp,sp,-80
    80000ba8:	e486                	sd	ra,72(sp)
    80000baa:	e0a2                	sd	s0,64(sp)
    80000bac:	fc26                	sd	s1,56(sp)
    80000bae:	f84a                	sd	s2,48(sp)
    80000bb0:	f44e                	sd	s3,40(sp)
    80000bb2:	f052                	sd	s4,32(sp)
    80000bb4:	ec56                	sd	s5,24(sp)
    80000bb6:	e85a                	sd	s6,16(sp)
    80000bb8:	e45e                	sd	s7,8(sp)
    80000bba:	e062                	sd	s8,0(sp)
    80000bbc:	0880                	add	s0,sp,80
    80000bbe:	8b2a                	mv	s6,a0
    80000bc0:	8a2e                	mv	s4,a1
    80000bc2:	8c32                	mv	s8,a2
    80000bc4:	89b6                	mv	s3,a3
    va0 = PGROUNDDOWN(srcva);
    80000bc6:	7bfd                	lui	s7,0xfffff
    pa0 = walkaddr(pagetable, va0);
    if(pa0 == 0)
      return -1;
    n = PGSIZE - (srcva - va0);
    80000bc8:	6a85                	lui	s5,0x1
    80000bca:	a01d                	j	80000bf0 <copyin+0x4c>
    if(n > len)
      n = len;
    memmove(dst, (void *)(pa0 + (srcva - va0)), n);
    80000bcc:	018505b3          	add	a1,a0,s8
    80000bd0:	0004861b          	sext.w	a2,s1
    80000bd4:	412585b3          	sub	a1,a1,s2
    80000bd8:	8552                	mv	a0,s4
    80000bda:	fffff097          	auipc	ra,0xfffff
    80000bde:	5fc080e7          	jalr	1532(ra) # 800001d6 <memmove>

    len -= n;
    80000be2:	409989b3          	sub	s3,s3,s1
    dst += n;
    80000be6:	9a26                	add	s4,s4,s1
    srcva = va0 + PGSIZE;
    80000be8:	01590c33          	add	s8,s2,s5
  while(len > 0){
    80000bec:	02098263          	beqz	s3,80000c10 <copyin+0x6c>
    va0 = PGROUNDDOWN(srcva);
    80000bf0:	017c7933          	and	s2,s8,s7
    pa0 = walkaddr(pagetable, va0);
    80000bf4:	85ca                	mv	a1,s2
    80000bf6:	855a                	mv	a0,s6
    80000bf8:	00000097          	auipc	ra,0x0
    80000bfc:	900080e7          	jalr	-1792(ra) # 800004f8 <walkaddr>
    if(pa0 == 0)
    80000c00:	cd01                	beqz	a0,80000c18 <copyin+0x74>
    n = PGSIZE - (srcva - va0);
    80000c02:	418904b3          	sub	s1,s2,s8
    80000c06:	94d6                	add	s1,s1,s5
    if(n > len)
    80000c08:	fc99f2e3          	bgeu	s3,s1,80000bcc <copyin+0x28>
    80000c0c:	84ce                	mv	s1,s3
    80000c0e:	bf7d                	j	80000bcc <copyin+0x28>
  }
  return 0;
    80000c10:	4501                	li	a0,0
    80000c12:	a021                	j	80000c1a <copyin+0x76>
    80000c14:	4501                	li	a0,0
}
    80000c16:	8082                	ret
      return -1;
    80000c18:	557d                	li	a0,-1
}
    80000c1a:	60a6                	ld	ra,72(sp)
    80000c1c:	6406                	ld	s0,64(sp)
    80000c1e:	74e2                	ld	s1,56(sp)
    80000c20:	7942                	ld	s2,48(sp)
    80000c22:	79a2                	ld	s3,40(sp)
    80000c24:	7a02                	ld	s4,32(sp)
    80000c26:	6ae2                	ld	s5,24(sp)
    80000c28:	6b42                	ld	s6,16(sp)
    80000c2a:	6ba2                	ld	s7,8(sp)
    80000c2c:	6c02                	ld	s8,0(sp)
    80000c2e:	6161                	add	sp,sp,80
    80000c30:	8082                	ret

0000000080000c32 <copyinstr>:
copyinstr(pagetable_t pagetable, char *dst, uint64 srcva, uint64 max)
{
  uint64 n, va0, pa0;
  int got_null = 0;

  while(got_null == 0 && max > 0){
    80000c32:	cacd                	beqz	a3,80000ce4 <copyinstr+0xb2>
{
    80000c34:	715d                	add	sp,sp,-80
    80000c36:	e486                	sd	ra,72(sp)
    80000c38:	e0a2                	sd	s0,64(sp)
    80000c3a:	fc26                	sd	s1,56(sp)
    80000c3c:	f84a                	sd	s2,48(sp)
    80000c3e:	f44e                	sd	s3,40(sp)
    80000c40:	f052                	sd	s4,32(sp)
    80000c42:	ec56                	sd	s5,24(sp)
    80000c44:	e85a                	sd	s6,16(sp)
    80000c46:	e45e                	sd	s7,8(sp)
    80000c48:	0880                	add	s0,sp,80
    80000c4a:	8a2a                	mv	s4,a0
    80000c4c:	8b2e                	mv	s6,a1
    80000c4e:	8bb2                	mv	s7,a2
    80000c50:	8936                	mv	s2,a3
    va0 = PGROUNDDOWN(srcva);
    80000c52:	7afd                	lui	s5,0xfffff
    pa0 = walkaddr(pagetable, va0);
    if(pa0 == 0)
      return -1;
    n = PGSIZE - (srcva - va0);
    80000c54:	6985                	lui	s3,0x1
    80000c56:	a825                	j	80000c8e <copyinstr+0x5c>
      n = max;

    char *p = (char *) (pa0 + (srcva - va0));
    while(n > 0){
      if(*p == '\0'){
        *dst = '\0';
    80000c58:	00078023          	sb	zero,0(a5) # 1000 <_entry-0x7ffff000>
    80000c5c:	4785                	li	a5,1
      dst++;
    }

    srcva = va0 + PGSIZE;
  }
  if(got_null){
    80000c5e:	37fd                	addw	a5,a5,-1
    80000c60:	0007851b          	sext.w	a0,a5
    return 0;
  } else {
    return -1;
  }
}
    80000c64:	60a6                	ld	ra,72(sp)
    80000c66:	6406                	ld	s0,64(sp)
    80000c68:	74e2                	ld	s1,56(sp)
    80000c6a:	7942                	ld	s2,48(sp)
    80000c6c:	79a2                	ld	s3,40(sp)
    80000c6e:	7a02                	ld	s4,32(sp)
    80000c70:	6ae2                	ld	s5,24(sp)
    80000c72:	6b42                	ld	s6,16(sp)
    80000c74:	6ba2                	ld	s7,8(sp)
    80000c76:	6161                	add	sp,sp,80
    80000c78:	8082                	ret
    80000c7a:	fff90713          	add	a4,s2,-1 # fff <_entry-0x7ffff001>
    80000c7e:	9742                	add	a4,a4,a6
      --max;
    80000c80:	40b70933          	sub	s2,a4,a1
    srcva = va0 + PGSIZE;
    80000c84:	01348bb3          	add	s7,s1,s3
  while(got_null == 0 && max > 0){
    80000c88:	04e58663          	beq	a1,a4,80000cd4 <copyinstr+0xa2>
{
    80000c8c:	8b3e                	mv	s6,a5
    va0 = PGROUNDDOWN(srcva);
    80000c8e:	015bf4b3          	and	s1,s7,s5
    pa0 = walkaddr(pagetable, va0);
    80000c92:	85a6                	mv	a1,s1
    80000c94:	8552                	mv	a0,s4
    80000c96:	00000097          	auipc	ra,0x0
    80000c9a:	862080e7          	jalr	-1950(ra) # 800004f8 <walkaddr>
    if(pa0 == 0)
    80000c9e:	cd0d                	beqz	a0,80000cd8 <copyinstr+0xa6>
    n = PGSIZE - (srcva - va0);
    80000ca0:	417486b3          	sub	a3,s1,s7
    80000ca4:	96ce                	add	a3,a3,s3
    if(n > max)
    80000ca6:	00d97363          	bgeu	s2,a3,80000cac <copyinstr+0x7a>
    80000caa:	86ca                	mv	a3,s2
    char *p = (char *) (pa0 + (srcva - va0));
    80000cac:	955e                	add	a0,a0,s7
    80000cae:	8d05                	sub	a0,a0,s1
    while(n > 0){
    80000cb0:	c695                	beqz	a3,80000cdc <copyinstr+0xaa>
    80000cb2:	87da                	mv	a5,s6
    80000cb4:	885a                	mv	a6,s6
      if(*p == '\0'){
    80000cb6:	41650633          	sub	a2,a0,s6
    while(n > 0){
    80000cba:	96da                	add	a3,a3,s6
    80000cbc:	85be                	mv	a1,a5
      if(*p == '\0'){
    80000cbe:	00f60733          	add	a4,a2,a5
    80000cc2:	00074703          	lbu	a4,0(a4) # fffffffffffff000 <end+0xffffffff7ffd8dc0>
    80000cc6:	db49                	beqz	a4,80000c58 <copyinstr+0x26>
        *dst = *p;
    80000cc8:	00e78023          	sb	a4,0(a5)
      dst++;
    80000ccc:	0785                	add	a5,a5,1
    while(n > 0){
    80000cce:	fed797e3          	bne	a5,a3,80000cbc <copyinstr+0x8a>
    80000cd2:	b765                	j	80000c7a <copyinstr+0x48>
    80000cd4:	4781                	li	a5,0
    80000cd6:	b761                	j	80000c5e <copyinstr+0x2c>
      return -1;
    80000cd8:	557d                	li	a0,-1
    80000cda:	b769                	j	80000c64 <copyinstr+0x32>
    srcva = va0 + PGSIZE;
    80000cdc:	6b85                	lui	s7,0x1
    80000cde:	9ba6                	add	s7,s7,s1
    80000ce0:	87da                	mv	a5,s6
    80000ce2:	b76d                	j	80000c8c <copyinstr+0x5a>
  int got_null = 0;
    80000ce4:	4781                	li	a5,0
  if(got_null){
    80000ce6:	37fd                	addw	a5,a5,-1
    80000ce8:	0007851b          	sext.w	a0,a5
}
    80000cec:	8082                	ret

0000000080000cee <proc_mapstacks>:

// Allocate a page for each process's kernel stack.
// Map it high in memory, followed by an invalid
// guard page.
void
proc_mapstacks(pagetable_t kpgtbl) {
    80000cee:	7139                	add	sp,sp,-64
    80000cf0:	fc06                	sd	ra,56(sp)
    80000cf2:	f822                	sd	s0,48(sp)
    80000cf4:	f426                	sd	s1,40(sp)
    80000cf6:	f04a                	sd	s2,32(sp)
    80000cf8:	ec4e                	sd	s3,24(sp)
    80000cfa:	e852                	sd	s4,16(sp)
    80000cfc:	e456                	sd	s5,8(sp)
    80000cfe:	e05a                	sd	s6,0(sp)
    80000d00:	0080                	add	s0,sp,64
    80000d02:	8a2a                	mv	s4,a0
  struct proc *p;
  
  for(p = proc; p < &proc[NPROC]; p++) {
    80000d04:	00008497          	auipc	s1,0x8
    80000d08:	77c48493          	add	s1,s1,1916 # 80009480 <proc>
    char *pa = kalloc();
    if(pa == 0)
      panic("kalloc");
    uint64 va = KSTACK((int) (p - proc));
    80000d0c:	8b26                	mv	s6,s1
    80000d0e:	04fa5937          	lui	s2,0x4fa5
    80000d12:	fa590913          	add	s2,s2,-91 # 4fa4fa5 <_entry-0x7b05b05b>
    80000d16:	0932                	sll	s2,s2,0xc
    80000d18:	fa590913          	add	s2,s2,-91
    80000d1c:	0932                	sll	s2,s2,0xc
    80000d1e:	fa590913          	add	s2,s2,-91
    80000d22:	0932                	sll	s2,s2,0xc
    80000d24:	fa590913          	add	s2,s2,-91
    80000d28:	040009b7          	lui	s3,0x4000
    80000d2c:	19fd                	add	s3,s3,-1 # 3ffffff <_entry-0x7c000001>
    80000d2e:	09b2                	sll	s3,s3,0xc
  for(p = proc; p < &proc[NPROC]; p++) {
    80000d30:	0000ea97          	auipc	s5,0xe
    80000d34:	150a8a93          	add	s5,s5,336 # 8000ee80 <tickslock>
    char *pa = kalloc();
    80000d38:	fffff097          	auipc	ra,0xfffff
    80000d3c:	3e2080e7          	jalr	994(ra) # 8000011a <kalloc>
    80000d40:	862a                	mv	a2,a0
    if(pa == 0)
    80000d42:	c121                	beqz	a0,80000d82 <proc_mapstacks+0x94>
    uint64 va = KSTACK((int) (p - proc));
    80000d44:	416485b3          	sub	a1,s1,s6
    80000d48:	858d                	sra	a1,a1,0x3
    80000d4a:	032585b3          	mul	a1,a1,s2
    80000d4e:	2585                	addw	a1,a1,1
    80000d50:	00d5959b          	sllw	a1,a1,0xd
    kvmmap(kpgtbl, va, (uint64)pa, PGSIZE, PTE_R | PTE_W);
    80000d54:	4719                	li	a4,6
    80000d56:	6685                	lui	a3,0x1
    80000d58:	40b985b3          	sub	a1,s3,a1
    80000d5c:	8552                	mv	a0,s4
    80000d5e:	00000097          	auipc	ra,0x0
    80000d62:	87c080e7          	jalr	-1924(ra) # 800005da <kvmmap>
  for(p = proc; p < &proc[NPROC]; p++) {
    80000d66:	16848493          	add	s1,s1,360
    80000d6a:	fd5497e3          	bne	s1,s5,80000d38 <proc_mapstacks+0x4a>
  }
}
    80000d6e:	70e2                	ld	ra,56(sp)
    80000d70:	7442                	ld	s0,48(sp)
    80000d72:	74a2                	ld	s1,40(sp)
    80000d74:	7902                	ld	s2,32(sp)
    80000d76:	69e2                	ld	s3,24(sp)
    80000d78:	6a42                	ld	s4,16(sp)
    80000d7a:	6aa2                	ld	s5,8(sp)
    80000d7c:	6b02                	ld	s6,0(sp)
    80000d7e:	6121                	add	sp,sp,64
    80000d80:	8082                	ret
      panic("kalloc");
    80000d82:	00007517          	auipc	a0,0x7
    80000d86:	3d650513          	add	a0,a0,982 # 80008158 <etext+0x158>
    80000d8a:	00005097          	auipc	ra,0x5
    80000d8e:	e92080e7          	jalr	-366(ra) # 80005c1c <panic>

0000000080000d92 <procinit>:

// initialize the proc table at boot time.
void
procinit(void)
{
    80000d92:	7139                	add	sp,sp,-64
    80000d94:	fc06                	sd	ra,56(sp)
    80000d96:	f822                	sd	s0,48(sp)
    80000d98:	f426                	sd	s1,40(sp)
    80000d9a:	f04a                	sd	s2,32(sp)
    80000d9c:	ec4e                	sd	s3,24(sp)
    80000d9e:	e852                	sd	s4,16(sp)
    80000da0:	e456                	sd	s5,8(sp)
    80000da2:	e05a                	sd	s6,0(sp)
    80000da4:	0080                	add	s0,sp,64
  struct proc *p;
  
  initlock(&pid_lock, "nextpid");
    80000da6:	00007597          	auipc	a1,0x7
    80000daa:	3ba58593          	add	a1,a1,954 # 80008160 <etext+0x160>
    80000dae:	00008517          	auipc	a0,0x8
    80000db2:	2a250513          	add	a0,a0,674 # 80009050 <pid_lock>
    80000db6:	00005097          	auipc	ra,0x5
    80000dba:	350080e7          	jalr	848(ra) # 80006106 <initlock>
  initlock(&wait_lock, "wait_lock");
    80000dbe:	00007597          	auipc	a1,0x7
    80000dc2:	3aa58593          	add	a1,a1,938 # 80008168 <etext+0x168>
    80000dc6:	00008517          	auipc	a0,0x8
    80000dca:	2a250513          	add	a0,a0,674 # 80009068 <wait_lock>
    80000dce:	00005097          	auipc	ra,0x5
    80000dd2:	338080e7          	jalr	824(ra) # 80006106 <initlock>
  for(p = proc; p < &proc[NPROC]; p++) {
    80000dd6:	00008497          	auipc	s1,0x8
    80000dda:	6aa48493          	add	s1,s1,1706 # 80009480 <proc>
      initlock(&p->lock, "proc");
    80000dde:	00007b17          	auipc	s6,0x7
    80000de2:	39ab0b13          	add	s6,s6,922 # 80008178 <etext+0x178>
      p->kstack = KSTACK((int) (p - proc));
    80000de6:	8aa6                	mv	s5,s1
    80000de8:	04fa5937          	lui	s2,0x4fa5
    80000dec:	fa590913          	add	s2,s2,-91 # 4fa4fa5 <_entry-0x7b05b05b>
    80000df0:	0932                	sll	s2,s2,0xc
    80000df2:	fa590913          	add	s2,s2,-91
    80000df6:	0932                	sll	s2,s2,0xc
    80000df8:	fa590913          	add	s2,s2,-91
    80000dfc:	0932                	sll	s2,s2,0xc
    80000dfe:	fa590913          	add	s2,s2,-91
    80000e02:	040009b7          	lui	s3,0x4000
    80000e06:	19fd                	add	s3,s3,-1 # 3ffffff <_entry-0x7c000001>
    80000e08:	09b2                	sll	s3,s3,0xc
  for(p = proc; p < &proc[NPROC]; p++) {
    80000e0a:	0000ea17          	auipc	s4,0xe
    80000e0e:	076a0a13          	add	s4,s4,118 # 8000ee80 <tickslock>
      initlock(&p->lock, "proc");
    80000e12:	85da                	mv	a1,s6
    80000e14:	8526                	mv	a0,s1
    80000e16:	00005097          	auipc	ra,0x5
    80000e1a:	2f0080e7          	jalr	752(ra) # 80006106 <initlock>
      p->kstack = KSTACK((int) (p - proc));
    80000e1e:	415487b3          	sub	a5,s1,s5
    80000e22:	878d                	sra	a5,a5,0x3
    80000e24:	032787b3          	mul	a5,a5,s2
    80000e28:	2785                	addw	a5,a5,1
    80000e2a:	00d7979b          	sllw	a5,a5,0xd
    80000e2e:	40f987b3          	sub	a5,s3,a5
    80000e32:	e0bc                	sd	a5,64(s1)
  for(p = proc; p < &proc[NPROC]; p++) {
    80000e34:	16848493          	add	s1,s1,360
    80000e38:	fd449de3          	bne	s1,s4,80000e12 <procinit+0x80>
  }
}
    80000e3c:	70e2                	ld	ra,56(sp)
    80000e3e:	7442                	ld	s0,48(sp)
    80000e40:	74a2                	ld	s1,40(sp)
    80000e42:	7902                	ld	s2,32(sp)
    80000e44:	69e2                	ld	s3,24(sp)
    80000e46:	6a42                	ld	s4,16(sp)
    80000e48:	6aa2                	ld	s5,8(sp)
    80000e4a:	6b02                	ld	s6,0(sp)
    80000e4c:	6121                	add	sp,sp,64
    80000e4e:	8082                	ret

0000000080000e50 <cpuid>:
// Must be called with interrupts disabled,
// to prevent race with process being moved
// to a different CPU.
int
cpuid()
{
    80000e50:	1141                	add	sp,sp,-16
    80000e52:	e422                	sd	s0,8(sp)
    80000e54:	0800                	add	s0,sp,16
  asm volatile("mv %0, tp" : "=r" (x) );
    80000e56:	8512                	mv	a0,tp
  int id = r_tp();
  return id;
}
    80000e58:	2501                	sext.w	a0,a0
    80000e5a:	6422                	ld	s0,8(sp)
    80000e5c:	0141                	add	sp,sp,16
    80000e5e:	8082                	ret

0000000080000e60 <mycpu>:

// Return this CPU's cpu struct.
// Interrupts must be disabled.
struct cpu*
mycpu(void) {
    80000e60:	1141                	add	sp,sp,-16
    80000e62:	e422                	sd	s0,8(sp)
    80000e64:	0800                	add	s0,sp,16
    80000e66:	8792                	mv	a5,tp
  int id = cpuid();
  struct cpu *c = &cpus[id];
    80000e68:	2781                	sext.w	a5,a5
    80000e6a:	079e                	sll	a5,a5,0x7
  return c;
}
    80000e6c:	00008517          	auipc	a0,0x8
    80000e70:	21450513          	add	a0,a0,532 # 80009080 <cpus>
    80000e74:	953e                	add	a0,a0,a5
    80000e76:	6422                	ld	s0,8(sp)
    80000e78:	0141                	add	sp,sp,16
    80000e7a:	8082                	ret

0000000080000e7c <myproc>:

// Return the current struct proc *, or zero if none.
struct proc*
myproc(void) {
    80000e7c:	1101                	add	sp,sp,-32
    80000e7e:	ec06                	sd	ra,24(sp)
    80000e80:	e822                	sd	s0,16(sp)
    80000e82:	e426                	sd	s1,8(sp)
    80000e84:	1000                	add	s0,sp,32
  push_off();
    80000e86:	00005097          	auipc	ra,0x5
    80000e8a:	2c4080e7          	jalr	708(ra) # 8000614a <push_off>
    80000e8e:	8792                	mv	a5,tp
  struct cpu *c = mycpu();
  struct proc *p = c->proc;
    80000e90:	2781                	sext.w	a5,a5
    80000e92:	079e                	sll	a5,a5,0x7
    80000e94:	00008717          	auipc	a4,0x8
    80000e98:	1bc70713          	add	a4,a4,444 # 80009050 <pid_lock>
    80000e9c:	97ba                	add	a5,a5,a4
    80000e9e:	7b84                	ld	s1,48(a5)
  pop_off();
    80000ea0:	00005097          	auipc	ra,0x5
    80000ea4:	34a080e7          	jalr	842(ra) # 800061ea <pop_off>
  return p;
}
    80000ea8:	8526                	mv	a0,s1
    80000eaa:	60e2                	ld	ra,24(sp)
    80000eac:	6442                	ld	s0,16(sp)
    80000eae:	64a2                	ld	s1,8(sp)
    80000eb0:	6105                	add	sp,sp,32
    80000eb2:	8082                	ret

0000000080000eb4 <forkret>:

// A fork child's very first scheduling by scheduler()
// will swtch to forkret.
void
forkret(void)
{
    80000eb4:	1141                	add	sp,sp,-16
    80000eb6:	e406                	sd	ra,8(sp)
    80000eb8:	e022                	sd	s0,0(sp)
    80000eba:	0800                	add	s0,sp,16
  static int first = 1;

  // Still holding p->lock from scheduler.
  release(&myproc()->lock);
    80000ebc:	00000097          	auipc	ra,0x0
    80000ec0:	fc0080e7          	jalr	-64(ra) # 80000e7c <myproc>
    80000ec4:	00005097          	auipc	ra,0x5
    80000ec8:	386080e7          	jalr	902(ra) # 8000624a <release>

  if (first) {
    80000ecc:	00008797          	auipc	a5,0x8
    80000ed0:	9447a783          	lw	a5,-1724(a5) # 80008810 <first.1>
    80000ed4:	eb89                	bnez	a5,80000ee6 <forkret+0x32>
    // be run from main().
    first = 0;
    fsinit(ROOTDEV);
  }

  usertrapret();
    80000ed6:	00001097          	auipc	ra,0x1
    80000eda:	c16080e7          	jalr	-1002(ra) # 80001aec <usertrapret>
}
    80000ede:	60a2                	ld	ra,8(sp)
    80000ee0:	6402                	ld	s0,0(sp)
    80000ee2:	0141                	add	sp,sp,16
    80000ee4:	8082                	ret
    first = 0;
    80000ee6:	00008797          	auipc	a5,0x8
    80000eea:	9207a523          	sw	zero,-1750(a5) # 80008810 <first.1>
    fsinit(ROOTDEV);
    80000eee:	4505                	li	a0,1
    80000ef0:	00002097          	auipc	ra,0x2
    80000ef4:	94a080e7          	jalr	-1718(ra) # 8000283a <fsinit>
    80000ef8:	bff9                	j	80000ed6 <forkret+0x22>

0000000080000efa <allocpid>:
allocpid() {
    80000efa:	1101                	add	sp,sp,-32
    80000efc:	ec06                	sd	ra,24(sp)
    80000efe:	e822                	sd	s0,16(sp)
    80000f00:	e426                	sd	s1,8(sp)
    80000f02:	e04a                	sd	s2,0(sp)
    80000f04:	1000                	add	s0,sp,32
  acquire(&pid_lock);
    80000f06:	00008917          	auipc	s2,0x8
    80000f0a:	14a90913          	add	s2,s2,330 # 80009050 <pid_lock>
    80000f0e:	854a                	mv	a0,s2
    80000f10:	00005097          	auipc	ra,0x5
    80000f14:	286080e7          	jalr	646(ra) # 80006196 <acquire>
  pid = nextpid;
    80000f18:	00008797          	auipc	a5,0x8
    80000f1c:	8fc78793          	add	a5,a5,-1796 # 80008814 <nextpid>
    80000f20:	4384                	lw	s1,0(a5)
  nextpid = nextpid + 1;
    80000f22:	0014871b          	addw	a4,s1,1
    80000f26:	c398                	sw	a4,0(a5)
  release(&pid_lock);
    80000f28:	854a                	mv	a0,s2
    80000f2a:	00005097          	auipc	ra,0x5
    80000f2e:	320080e7          	jalr	800(ra) # 8000624a <release>
}
    80000f32:	8526                	mv	a0,s1
    80000f34:	60e2                	ld	ra,24(sp)
    80000f36:	6442                	ld	s0,16(sp)
    80000f38:	64a2                	ld	s1,8(sp)
    80000f3a:	6902                	ld	s2,0(sp)
    80000f3c:	6105                	add	sp,sp,32
    80000f3e:	8082                	ret

0000000080000f40 <proc_pagetable>:
{
    80000f40:	1101                	add	sp,sp,-32
    80000f42:	ec06                	sd	ra,24(sp)
    80000f44:	e822                	sd	s0,16(sp)
    80000f46:	e426                	sd	s1,8(sp)
    80000f48:	e04a                	sd	s2,0(sp)
    80000f4a:	1000                	add	s0,sp,32
    80000f4c:	892a                	mv	s2,a0
  pagetable = uvmcreate();
    80000f4e:	00000097          	auipc	ra,0x0
    80000f52:	886080e7          	jalr	-1914(ra) # 800007d4 <uvmcreate>
    80000f56:	84aa                	mv	s1,a0
  if(pagetable == 0)
    80000f58:	c121                	beqz	a0,80000f98 <proc_pagetable+0x58>
  if(mappages(pagetable, TRAMPOLINE, PGSIZE,
    80000f5a:	4729                	li	a4,10
    80000f5c:	00006697          	auipc	a3,0x6
    80000f60:	0a468693          	add	a3,a3,164 # 80007000 <_trampoline>
    80000f64:	6605                	lui	a2,0x1
    80000f66:	040005b7          	lui	a1,0x4000
    80000f6a:	15fd                	add	a1,a1,-1 # 3ffffff <_entry-0x7c000001>
    80000f6c:	05b2                	sll	a1,a1,0xc
    80000f6e:	fffff097          	auipc	ra,0xfffff
    80000f72:	5cc080e7          	jalr	1484(ra) # 8000053a <mappages>
    80000f76:	02054863          	bltz	a0,80000fa6 <proc_pagetable+0x66>
  if(mappages(pagetable, TRAPFRAME, PGSIZE,
    80000f7a:	4719                	li	a4,6
    80000f7c:	05893683          	ld	a3,88(s2)
    80000f80:	6605                	lui	a2,0x1
    80000f82:	020005b7          	lui	a1,0x2000
    80000f86:	15fd                	add	a1,a1,-1 # 1ffffff <_entry-0x7e000001>
    80000f88:	05b6                	sll	a1,a1,0xd
    80000f8a:	8526                	mv	a0,s1
    80000f8c:	fffff097          	auipc	ra,0xfffff
    80000f90:	5ae080e7          	jalr	1454(ra) # 8000053a <mappages>
    80000f94:	02054163          	bltz	a0,80000fb6 <proc_pagetable+0x76>
}
    80000f98:	8526                	mv	a0,s1
    80000f9a:	60e2                	ld	ra,24(sp)
    80000f9c:	6442                	ld	s0,16(sp)
    80000f9e:	64a2                	ld	s1,8(sp)
    80000fa0:	6902                	ld	s2,0(sp)
    80000fa2:	6105                	add	sp,sp,32
    80000fa4:	8082                	ret
    uvmfree(pagetable, 0);
    80000fa6:	4581                	li	a1,0
    80000fa8:	8526                	mv	a0,s1
    80000faa:	00000097          	auipc	ra,0x0
    80000fae:	a30080e7          	jalr	-1488(ra) # 800009da <uvmfree>
    return 0;
    80000fb2:	4481                	li	s1,0
    80000fb4:	b7d5                	j	80000f98 <proc_pagetable+0x58>
    uvmunmap(pagetable, TRAMPOLINE, 1, 0);
    80000fb6:	4681                	li	a3,0
    80000fb8:	4605                	li	a2,1
    80000fba:	040005b7          	lui	a1,0x4000
    80000fbe:	15fd                	add	a1,a1,-1 # 3ffffff <_entry-0x7c000001>
    80000fc0:	05b2                	sll	a1,a1,0xc
    80000fc2:	8526                	mv	a0,s1
    80000fc4:	fffff097          	auipc	ra,0xfffff
    80000fc8:	73c080e7          	jalr	1852(ra) # 80000700 <uvmunmap>
    uvmfree(pagetable, 0);
    80000fcc:	4581                	li	a1,0
    80000fce:	8526                	mv	a0,s1
    80000fd0:	00000097          	auipc	ra,0x0
    80000fd4:	a0a080e7          	jalr	-1526(ra) # 800009da <uvmfree>
    return 0;
    80000fd8:	4481                	li	s1,0
    80000fda:	bf7d                	j	80000f98 <proc_pagetable+0x58>

0000000080000fdc <proc_freepagetable>:
{
    80000fdc:	1101                	add	sp,sp,-32
    80000fde:	ec06                	sd	ra,24(sp)
    80000fe0:	e822                	sd	s0,16(sp)
    80000fe2:	e426                	sd	s1,8(sp)
    80000fe4:	e04a                	sd	s2,0(sp)
    80000fe6:	1000                	add	s0,sp,32
    80000fe8:	84aa                	mv	s1,a0
    80000fea:	892e                	mv	s2,a1
  uvmunmap(pagetable, TRAMPOLINE, 1, 0);
    80000fec:	4681                	li	a3,0
    80000fee:	4605                	li	a2,1
    80000ff0:	040005b7          	lui	a1,0x4000
    80000ff4:	15fd                	add	a1,a1,-1 # 3ffffff <_entry-0x7c000001>
    80000ff6:	05b2                	sll	a1,a1,0xc
    80000ff8:	fffff097          	auipc	ra,0xfffff
    80000ffc:	708080e7          	jalr	1800(ra) # 80000700 <uvmunmap>
  uvmunmap(pagetable, TRAPFRAME, 1, 0);
    80001000:	4681                	li	a3,0
    80001002:	4605                	li	a2,1
    80001004:	020005b7          	lui	a1,0x2000
    80001008:	15fd                	add	a1,a1,-1 # 1ffffff <_entry-0x7e000001>
    8000100a:	05b6                	sll	a1,a1,0xd
    8000100c:	8526                	mv	a0,s1
    8000100e:	fffff097          	auipc	ra,0xfffff
    80001012:	6f2080e7          	jalr	1778(ra) # 80000700 <uvmunmap>
  uvmfree(pagetable, sz);
    80001016:	85ca                	mv	a1,s2
    80001018:	8526                	mv	a0,s1
    8000101a:	00000097          	auipc	ra,0x0
    8000101e:	9c0080e7          	jalr	-1600(ra) # 800009da <uvmfree>
}
    80001022:	60e2                	ld	ra,24(sp)
    80001024:	6442                	ld	s0,16(sp)
    80001026:	64a2                	ld	s1,8(sp)
    80001028:	6902                	ld	s2,0(sp)
    8000102a:	6105                	add	sp,sp,32
    8000102c:	8082                	ret

000000008000102e <freeproc>:
{
    8000102e:	1101                	add	sp,sp,-32
    80001030:	ec06                	sd	ra,24(sp)
    80001032:	e822                	sd	s0,16(sp)
    80001034:	e426                	sd	s1,8(sp)
    80001036:	1000                	add	s0,sp,32
    80001038:	84aa                	mv	s1,a0
  if(p->trapframe)
    8000103a:	6d28                	ld	a0,88(a0)
    8000103c:	c509                	beqz	a0,80001046 <freeproc+0x18>
    kfree((void*)p->trapframe);
    8000103e:	fffff097          	auipc	ra,0xfffff
    80001042:	fde080e7          	jalr	-34(ra) # 8000001c <kfree>
  p->trapframe = 0;
    80001046:	0404bc23          	sd	zero,88(s1)
  if(p->pagetable)
    8000104a:	68a8                	ld	a0,80(s1)
    8000104c:	c511                	beqz	a0,80001058 <freeproc+0x2a>
    proc_freepagetable(p->pagetable, p->sz);
    8000104e:	64ac                	ld	a1,72(s1)
    80001050:	00000097          	auipc	ra,0x0
    80001054:	f8c080e7          	jalr	-116(ra) # 80000fdc <proc_freepagetable>
  p->pagetable = 0;
    80001058:	0404b823          	sd	zero,80(s1)
  p->sz = 0;
    8000105c:	0404b423          	sd	zero,72(s1)
  p->pid = 0;
    80001060:	0204a823          	sw	zero,48(s1)
  p->parent = 0;
    80001064:	0204bc23          	sd	zero,56(s1)
  p->name[0] = 0;
    80001068:	14048c23          	sb	zero,344(s1)
  p->chan = 0;
    8000106c:	0204b023          	sd	zero,32(s1)
  p->killed = 0;
    80001070:	0204a423          	sw	zero,40(s1)
  p->xstate = 0;
    80001074:	0204a623          	sw	zero,44(s1)
  p->state = UNUSED;
    80001078:	0004ac23          	sw	zero,24(s1)
}
    8000107c:	60e2                	ld	ra,24(sp)
    8000107e:	6442                	ld	s0,16(sp)
    80001080:	64a2                	ld	s1,8(sp)
    80001082:	6105                	add	sp,sp,32
    80001084:	8082                	ret

0000000080001086 <allocproc>:
{
    80001086:	1101                	add	sp,sp,-32
    80001088:	ec06                	sd	ra,24(sp)
    8000108a:	e822                	sd	s0,16(sp)
    8000108c:	e426                	sd	s1,8(sp)
    8000108e:	e04a                	sd	s2,0(sp)
    80001090:	1000                	add	s0,sp,32
  for(p = proc; p < &proc[NPROC]; p++) {
    80001092:	00008497          	auipc	s1,0x8
    80001096:	3ee48493          	add	s1,s1,1006 # 80009480 <proc>
    8000109a:	0000e917          	auipc	s2,0xe
    8000109e:	de690913          	add	s2,s2,-538 # 8000ee80 <tickslock>
    acquire(&p->lock);
    800010a2:	8526                	mv	a0,s1
    800010a4:	00005097          	auipc	ra,0x5
    800010a8:	0f2080e7          	jalr	242(ra) # 80006196 <acquire>
    if(p->state == UNUSED) {
    800010ac:	4c9c                	lw	a5,24(s1)
    800010ae:	cf81                	beqz	a5,800010c6 <allocproc+0x40>
      release(&p->lock);
    800010b0:	8526                	mv	a0,s1
    800010b2:	00005097          	auipc	ra,0x5
    800010b6:	198080e7          	jalr	408(ra) # 8000624a <release>
  for(p = proc; p < &proc[NPROC]; p++) {
    800010ba:	16848493          	add	s1,s1,360
    800010be:	ff2492e3          	bne	s1,s2,800010a2 <allocproc+0x1c>
  return 0;
    800010c2:	4481                	li	s1,0
    800010c4:	a889                	j	80001116 <allocproc+0x90>
  p->pid = allocpid();
    800010c6:	00000097          	auipc	ra,0x0
    800010ca:	e34080e7          	jalr	-460(ra) # 80000efa <allocpid>
    800010ce:	d888                	sw	a0,48(s1)
  p->state = USED;
    800010d0:	4785                	li	a5,1
    800010d2:	cc9c                	sw	a5,24(s1)
  if((p->trapframe = (struct trapframe *)kalloc()) == 0){
    800010d4:	fffff097          	auipc	ra,0xfffff
    800010d8:	046080e7          	jalr	70(ra) # 8000011a <kalloc>
    800010dc:	892a                	mv	s2,a0
    800010de:	eca8                	sd	a0,88(s1)
    800010e0:	c131                	beqz	a0,80001124 <allocproc+0x9e>
  p->pagetable = proc_pagetable(p);
    800010e2:	8526                	mv	a0,s1
    800010e4:	00000097          	auipc	ra,0x0
    800010e8:	e5c080e7          	jalr	-420(ra) # 80000f40 <proc_pagetable>
    800010ec:	892a                	mv	s2,a0
    800010ee:	e8a8                	sd	a0,80(s1)
  if(p->pagetable == 0){
    800010f0:	c531                	beqz	a0,8000113c <allocproc+0xb6>
  memset(&p->context, 0, sizeof(p->context));
    800010f2:	07000613          	li	a2,112
    800010f6:	4581                	li	a1,0
    800010f8:	06048513          	add	a0,s1,96
    800010fc:	fffff097          	auipc	ra,0xfffff
    80001100:	07e080e7          	jalr	126(ra) # 8000017a <memset>
  p->context.ra = (uint64)forkret;
    80001104:	00000797          	auipc	a5,0x0
    80001108:	db078793          	add	a5,a5,-592 # 80000eb4 <forkret>
    8000110c:	f0bc                	sd	a5,96(s1)
  p->context.sp = p->kstack + PGSIZE;
    8000110e:	60bc                	ld	a5,64(s1)
    80001110:	6705                	lui	a4,0x1
    80001112:	97ba                	add	a5,a5,a4
    80001114:	f4bc                	sd	a5,104(s1)
}
    80001116:	8526                	mv	a0,s1
    80001118:	60e2                	ld	ra,24(sp)
    8000111a:	6442                	ld	s0,16(sp)
    8000111c:	64a2                	ld	s1,8(sp)
    8000111e:	6902                	ld	s2,0(sp)
    80001120:	6105                	add	sp,sp,32
    80001122:	8082                	ret
    freeproc(p);
    80001124:	8526                	mv	a0,s1
    80001126:	00000097          	auipc	ra,0x0
    8000112a:	f08080e7          	jalr	-248(ra) # 8000102e <freeproc>
    release(&p->lock);
    8000112e:	8526                	mv	a0,s1
    80001130:	00005097          	auipc	ra,0x5
    80001134:	11a080e7          	jalr	282(ra) # 8000624a <release>
    return 0;
    80001138:	84ca                	mv	s1,s2
    8000113a:	bff1                	j	80001116 <allocproc+0x90>
    freeproc(p);
    8000113c:	8526                	mv	a0,s1
    8000113e:	00000097          	auipc	ra,0x0
    80001142:	ef0080e7          	jalr	-272(ra) # 8000102e <freeproc>
    release(&p->lock);
    80001146:	8526                	mv	a0,s1
    80001148:	00005097          	auipc	ra,0x5
    8000114c:	102080e7          	jalr	258(ra) # 8000624a <release>
    return 0;
    80001150:	84ca                	mv	s1,s2
    80001152:	b7d1                	j	80001116 <allocproc+0x90>

0000000080001154 <userinit>:
{
    80001154:	1101                	add	sp,sp,-32
    80001156:	ec06                	sd	ra,24(sp)
    80001158:	e822                	sd	s0,16(sp)
    8000115a:	e426                	sd	s1,8(sp)
    8000115c:	1000                	add	s0,sp,32
  p = allocproc();
    8000115e:	00000097          	auipc	ra,0x0
    80001162:	f28080e7          	jalr	-216(ra) # 80001086 <allocproc>
    80001166:	84aa                	mv	s1,a0
  initproc = p;
    80001168:	00008797          	auipc	a5,0x8
    8000116c:	eaa7b423          	sd	a0,-344(a5) # 80009010 <initproc>
  uvminit(p->pagetable, initcode, sizeof(initcode));
    80001170:	03400613          	li	a2,52
    80001174:	00007597          	auipc	a1,0x7
    80001178:	6ac58593          	add	a1,a1,1708 # 80008820 <initcode>
    8000117c:	6928                	ld	a0,80(a0)
    8000117e:	fffff097          	auipc	ra,0xfffff
    80001182:	684080e7          	jalr	1668(ra) # 80000802 <uvminit>
  p->sz = PGSIZE;
    80001186:	6785                	lui	a5,0x1
    80001188:	e4bc                	sd	a5,72(s1)
  p->trapframe->epc = 0;      // user program counter
    8000118a:	6cb8                	ld	a4,88(s1)
    8000118c:	00073c23          	sd	zero,24(a4) # 1018 <_entry-0x7fffefe8>
  p->trapframe->sp = PGSIZE;  // user stack pointer
    80001190:	6cb8                	ld	a4,88(s1)
    80001192:	fb1c                	sd	a5,48(a4)
  safestrcpy(p->name, "initcode", sizeof(p->name));
    80001194:	4641                	li	a2,16
    80001196:	00007597          	auipc	a1,0x7
    8000119a:	fea58593          	add	a1,a1,-22 # 80008180 <etext+0x180>
    8000119e:	15848513          	add	a0,s1,344
    800011a2:	fffff097          	auipc	ra,0xfffff
    800011a6:	11a080e7          	jalr	282(ra) # 800002bc <safestrcpy>
  p->cwd = namei("/");
    800011aa:	00007517          	auipc	a0,0x7
    800011ae:	fe650513          	add	a0,a0,-26 # 80008190 <etext+0x190>
    800011b2:	00002097          	auipc	ra,0x2
    800011b6:	0ce080e7          	jalr	206(ra) # 80003280 <namei>
    800011ba:	14a4b823          	sd	a0,336(s1)
  p->state = RUNNABLE;
    800011be:	478d                	li	a5,3
    800011c0:	cc9c                	sw	a5,24(s1)
  release(&p->lock);
    800011c2:	8526                	mv	a0,s1
    800011c4:	00005097          	auipc	ra,0x5
    800011c8:	086080e7          	jalr	134(ra) # 8000624a <release>
}
    800011cc:	60e2                	ld	ra,24(sp)
    800011ce:	6442                	ld	s0,16(sp)
    800011d0:	64a2                	ld	s1,8(sp)
    800011d2:	6105                	add	sp,sp,32
    800011d4:	8082                	ret

00000000800011d6 <growproc>:
{
    800011d6:	1101                	add	sp,sp,-32
    800011d8:	ec06                	sd	ra,24(sp)
    800011da:	e822                	sd	s0,16(sp)
    800011dc:	e426                	sd	s1,8(sp)
    800011de:	e04a                	sd	s2,0(sp)
    800011e0:	1000                	add	s0,sp,32
    800011e2:	84aa                	mv	s1,a0
  struct proc *p = myproc();
    800011e4:	00000097          	auipc	ra,0x0
    800011e8:	c98080e7          	jalr	-872(ra) # 80000e7c <myproc>
    800011ec:	892a                	mv	s2,a0
  sz = p->sz;
    800011ee:	652c                	ld	a1,72(a0)
    800011f0:	0005879b          	sext.w	a5,a1
  if(n > 0){
    800011f4:	00904f63          	bgtz	s1,80001212 <growproc+0x3c>
  } else if(n < 0){
    800011f8:	0204cd63          	bltz	s1,80001232 <growproc+0x5c>
  p->sz = sz;
    800011fc:	1782                	sll	a5,a5,0x20
    800011fe:	9381                	srl	a5,a5,0x20
    80001200:	04f93423          	sd	a5,72(s2)
  return 0;
    80001204:	4501                	li	a0,0
}
    80001206:	60e2                	ld	ra,24(sp)
    80001208:	6442                	ld	s0,16(sp)
    8000120a:	64a2                	ld	s1,8(sp)
    8000120c:	6902                	ld	s2,0(sp)
    8000120e:	6105                	add	sp,sp,32
    80001210:	8082                	ret
    if((sz = uvmalloc(p->pagetable, sz, sz + n)) == 0) {
    80001212:	00f4863b          	addw	a2,s1,a5
    80001216:	1602                	sll	a2,a2,0x20
    80001218:	9201                	srl	a2,a2,0x20
    8000121a:	1582                	sll	a1,a1,0x20
    8000121c:	9181                	srl	a1,a1,0x20
    8000121e:	6928                	ld	a0,80(a0)
    80001220:	fffff097          	auipc	ra,0xfffff
    80001224:	69c080e7          	jalr	1692(ra) # 800008bc <uvmalloc>
    80001228:	0005079b          	sext.w	a5,a0
    8000122c:	fbe1                	bnez	a5,800011fc <growproc+0x26>
      return -1;
    8000122e:	557d                	li	a0,-1
    80001230:	bfd9                	j	80001206 <growproc+0x30>
    sz = uvmdealloc(p->pagetable, sz, sz + n);
    80001232:	00f4863b          	addw	a2,s1,a5
    80001236:	1602                	sll	a2,a2,0x20
    80001238:	9201                	srl	a2,a2,0x20
    8000123a:	1582                	sll	a1,a1,0x20
    8000123c:	9181                	srl	a1,a1,0x20
    8000123e:	6928                	ld	a0,80(a0)
    80001240:	fffff097          	auipc	ra,0xfffff
    80001244:	634080e7          	jalr	1588(ra) # 80000874 <uvmdealloc>
    80001248:	0005079b          	sext.w	a5,a0
    8000124c:	bf45                	j	800011fc <growproc+0x26>

000000008000124e <fork>:
{
    8000124e:	7139                	add	sp,sp,-64
    80001250:	fc06                	sd	ra,56(sp)
    80001252:	f822                	sd	s0,48(sp)
    80001254:	f04a                	sd	s2,32(sp)
    80001256:	e456                	sd	s5,8(sp)
    80001258:	0080                	add	s0,sp,64
  struct proc *p = myproc();
    8000125a:	00000097          	auipc	ra,0x0
    8000125e:	c22080e7          	jalr	-990(ra) # 80000e7c <myproc>
    80001262:	8aaa                	mv	s5,a0
  if((np = allocproc()) == 0){
    80001264:	00000097          	auipc	ra,0x0
    80001268:	e22080e7          	jalr	-478(ra) # 80001086 <allocproc>
    8000126c:	12050063          	beqz	a0,8000138c <fork+0x13e>
    80001270:	e852                	sd	s4,16(sp)
    80001272:	8a2a                	mv	s4,a0
  if(uvmcopy(p->pagetable, np->pagetable, p->sz) < 0){
    80001274:	048ab603          	ld	a2,72(s5)
    80001278:	692c                	ld	a1,80(a0)
    8000127a:	050ab503          	ld	a0,80(s5)
    8000127e:	fffff097          	auipc	ra,0xfffff
    80001282:	796080e7          	jalr	1942(ra) # 80000a14 <uvmcopy>
    80001286:	04054a63          	bltz	a0,800012da <fork+0x8c>
    8000128a:	f426                	sd	s1,40(sp)
    8000128c:	ec4e                	sd	s3,24(sp)
  np->sz = p->sz;
    8000128e:	048ab783          	ld	a5,72(s5)
    80001292:	04fa3423          	sd	a5,72(s4)
  *(np->trapframe) = *(p->trapframe);
    80001296:	058ab683          	ld	a3,88(s5)
    8000129a:	87b6                	mv	a5,a3
    8000129c:	058a3703          	ld	a4,88(s4)
    800012a0:	12068693          	add	a3,a3,288
    800012a4:	0007b803          	ld	a6,0(a5) # 1000 <_entry-0x7ffff000>
    800012a8:	6788                	ld	a0,8(a5)
    800012aa:	6b8c                	ld	a1,16(a5)
    800012ac:	6f90                	ld	a2,24(a5)
    800012ae:	01073023          	sd	a6,0(a4)
    800012b2:	e708                	sd	a0,8(a4)
    800012b4:	eb0c                	sd	a1,16(a4)
    800012b6:	ef10                	sd	a2,24(a4)
    800012b8:	02078793          	add	a5,a5,32
    800012bc:	02070713          	add	a4,a4,32
    800012c0:	fed792e3          	bne	a5,a3,800012a4 <fork+0x56>
  np->trapframe->a0 = 0;
    800012c4:	058a3783          	ld	a5,88(s4)
    800012c8:	0607b823          	sd	zero,112(a5)
  for(i = 0; i < NOFILE; i++)
    800012cc:	0d0a8493          	add	s1,s5,208
    800012d0:	0d0a0913          	add	s2,s4,208
    800012d4:	150a8993          	add	s3,s5,336
    800012d8:	a015                	j	800012fc <fork+0xae>
    freeproc(np);
    800012da:	8552                	mv	a0,s4
    800012dc:	00000097          	auipc	ra,0x0
    800012e0:	d52080e7          	jalr	-686(ra) # 8000102e <freeproc>
    release(&np->lock);
    800012e4:	8552                	mv	a0,s4
    800012e6:	00005097          	auipc	ra,0x5
    800012ea:	f64080e7          	jalr	-156(ra) # 8000624a <release>
    return -1;
    800012ee:	597d                	li	s2,-1
    800012f0:	6a42                	ld	s4,16(sp)
    800012f2:	a071                	j	8000137e <fork+0x130>
  for(i = 0; i < NOFILE; i++)
    800012f4:	04a1                	add	s1,s1,8
    800012f6:	0921                	add	s2,s2,8
    800012f8:	01348b63          	beq	s1,s3,8000130e <fork+0xc0>
    if(p->ofile[i])
    800012fc:	6088                	ld	a0,0(s1)
    800012fe:	d97d                	beqz	a0,800012f4 <fork+0xa6>
      np->ofile[i] = filedup(p->ofile[i]);
    80001300:	00002097          	auipc	ra,0x2
    80001304:	5f8080e7          	jalr	1528(ra) # 800038f8 <filedup>
    80001308:	00a93023          	sd	a0,0(s2)
    8000130c:	b7e5                	j	800012f4 <fork+0xa6>
  np->cwd = idup(p->cwd);
    8000130e:	150ab503          	ld	a0,336(s5)
    80001312:	00001097          	auipc	ra,0x1
    80001316:	75e080e7          	jalr	1886(ra) # 80002a70 <idup>
    8000131a:	14aa3823          	sd	a0,336(s4)
  safestrcpy(np->name, p->name, sizeof(p->name));
    8000131e:	4641                	li	a2,16
    80001320:	158a8593          	add	a1,s5,344
    80001324:	158a0513          	add	a0,s4,344
    80001328:	fffff097          	auipc	ra,0xfffff
    8000132c:	f94080e7          	jalr	-108(ra) # 800002bc <safestrcpy>
  pid = np->pid;
    80001330:	030a2903          	lw	s2,48(s4)
  release(&np->lock);
    80001334:	8552                	mv	a0,s4
    80001336:	00005097          	auipc	ra,0x5
    8000133a:	f14080e7          	jalr	-236(ra) # 8000624a <release>
  acquire(&wait_lock);
    8000133e:	00008497          	auipc	s1,0x8
    80001342:	d2a48493          	add	s1,s1,-726 # 80009068 <wait_lock>
    80001346:	8526                	mv	a0,s1
    80001348:	00005097          	auipc	ra,0x5
    8000134c:	e4e080e7          	jalr	-434(ra) # 80006196 <acquire>
  np->parent = p;
    80001350:	035a3c23          	sd	s5,56(s4)
  release(&wait_lock);
    80001354:	8526                	mv	a0,s1
    80001356:	00005097          	auipc	ra,0x5
    8000135a:	ef4080e7          	jalr	-268(ra) # 8000624a <release>
  acquire(&np->lock);
    8000135e:	8552                	mv	a0,s4
    80001360:	00005097          	auipc	ra,0x5
    80001364:	e36080e7          	jalr	-458(ra) # 80006196 <acquire>
  np->state = RUNNABLE;
    80001368:	478d                	li	a5,3
    8000136a:	00fa2c23          	sw	a5,24(s4)
  release(&np->lock);
    8000136e:	8552                	mv	a0,s4
    80001370:	00005097          	auipc	ra,0x5
    80001374:	eda080e7          	jalr	-294(ra) # 8000624a <release>
  return pid;
    80001378:	74a2                	ld	s1,40(sp)
    8000137a:	69e2                	ld	s3,24(sp)
    8000137c:	6a42                	ld	s4,16(sp)
}
    8000137e:	854a                	mv	a0,s2
    80001380:	70e2                	ld	ra,56(sp)
    80001382:	7442                	ld	s0,48(sp)
    80001384:	7902                	ld	s2,32(sp)
    80001386:	6aa2                	ld	s5,8(sp)
    80001388:	6121                	add	sp,sp,64
    8000138a:	8082                	ret
    return -1;
    8000138c:	597d                	li	s2,-1
    8000138e:	bfc5                	j	8000137e <fork+0x130>

0000000080001390 <scheduler>:
{
    80001390:	7139                	add	sp,sp,-64
    80001392:	fc06                	sd	ra,56(sp)
    80001394:	f822                	sd	s0,48(sp)
    80001396:	f426                	sd	s1,40(sp)
    80001398:	f04a                	sd	s2,32(sp)
    8000139a:	ec4e                	sd	s3,24(sp)
    8000139c:	e852                	sd	s4,16(sp)
    8000139e:	e456                	sd	s5,8(sp)
    800013a0:	e05a                	sd	s6,0(sp)
    800013a2:	0080                	add	s0,sp,64
    800013a4:	8792                	mv	a5,tp
  int id = r_tp();
    800013a6:	2781                	sext.w	a5,a5
  c->proc = 0;
    800013a8:	00779a93          	sll	s5,a5,0x7
    800013ac:	00008717          	auipc	a4,0x8
    800013b0:	ca470713          	add	a4,a4,-860 # 80009050 <pid_lock>
    800013b4:	9756                	add	a4,a4,s5
    800013b6:	02073823          	sd	zero,48(a4)
        swtch(&c->context, &p->context);
    800013ba:	00008717          	auipc	a4,0x8
    800013be:	cce70713          	add	a4,a4,-818 # 80009088 <cpus+0x8>
    800013c2:	9aba                	add	s5,s5,a4
      if(p->state == RUNNABLE) {
    800013c4:	498d                	li	s3,3
        p->state = RUNNING;
    800013c6:	4b11                	li	s6,4
        c->proc = p;
    800013c8:	079e                	sll	a5,a5,0x7
    800013ca:	00008a17          	auipc	s4,0x8
    800013ce:	c86a0a13          	add	s4,s4,-890 # 80009050 <pid_lock>
    800013d2:	9a3e                	add	s4,s4,a5
    for(p = proc; p < &proc[NPROC]; p++) {
    800013d4:	0000e917          	auipc	s2,0xe
    800013d8:	aac90913          	add	s2,s2,-1364 # 8000ee80 <tickslock>
  asm volatile("csrr %0, sstatus" : "=r" (x) );
    800013dc:	100027f3          	csrr	a5,sstatus
  w_sstatus(r_sstatus() | SSTATUS_SIE);
    800013e0:	0027e793          	or	a5,a5,2
  asm volatile("csrw sstatus, %0" : : "r" (x));
    800013e4:	10079073          	csrw	sstatus,a5
    800013e8:	00008497          	auipc	s1,0x8
    800013ec:	09848493          	add	s1,s1,152 # 80009480 <proc>
    800013f0:	a811                	j	80001404 <scheduler+0x74>
      release(&p->lock);
    800013f2:	8526                	mv	a0,s1
    800013f4:	00005097          	auipc	ra,0x5
    800013f8:	e56080e7          	jalr	-426(ra) # 8000624a <release>
    for(p = proc; p < &proc[NPROC]; p++) {
    800013fc:	16848493          	add	s1,s1,360
    80001400:	fd248ee3          	beq	s1,s2,800013dc <scheduler+0x4c>
      acquire(&p->lock);
    80001404:	8526                	mv	a0,s1
    80001406:	00005097          	auipc	ra,0x5
    8000140a:	d90080e7          	jalr	-624(ra) # 80006196 <acquire>
      if(p->state == RUNNABLE) {
    8000140e:	4c9c                	lw	a5,24(s1)
    80001410:	ff3791e3          	bne	a5,s3,800013f2 <scheduler+0x62>
        p->state = RUNNING;
    80001414:	0164ac23          	sw	s6,24(s1)
        c->proc = p;
    80001418:	029a3823          	sd	s1,48(s4)
        swtch(&c->context, &p->context);
    8000141c:	06048593          	add	a1,s1,96
    80001420:	8556                	mv	a0,s5
    80001422:	00000097          	auipc	ra,0x0
    80001426:	620080e7          	jalr	1568(ra) # 80001a42 <swtch>
        c->proc = 0;
    8000142a:	020a3823          	sd	zero,48(s4)
    8000142e:	b7d1                	j	800013f2 <scheduler+0x62>

0000000080001430 <sched>:
{
    80001430:	7179                	add	sp,sp,-48
    80001432:	f406                	sd	ra,40(sp)
    80001434:	f022                	sd	s0,32(sp)
    80001436:	ec26                	sd	s1,24(sp)
    80001438:	e84a                	sd	s2,16(sp)
    8000143a:	e44e                	sd	s3,8(sp)
    8000143c:	1800                	add	s0,sp,48
  struct proc *p = myproc();
    8000143e:	00000097          	auipc	ra,0x0
    80001442:	a3e080e7          	jalr	-1474(ra) # 80000e7c <myproc>
    80001446:	84aa                	mv	s1,a0
  if(!holding(&p->lock))
    80001448:	00005097          	auipc	ra,0x5
    8000144c:	cd4080e7          	jalr	-812(ra) # 8000611c <holding>
    80001450:	c93d                	beqz	a0,800014c6 <sched+0x96>
  asm volatile("mv %0, tp" : "=r" (x) );
    80001452:	8792                	mv	a5,tp
  if(mycpu()->noff != 1)
    80001454:	2781                	sext.w	a5,a5
    80001456:	079e                	sll	a5,a5,0x7
    80001458:	00008717          	auipc	a4,0x8
    8000145c:	bf870713          	add	a4,a4,-1032 # 80009050 <pid_lock>
    80001460:	97ba                	add	a5,a5,a4
    80001462:	0a87a703          	lw	a4,168(a5)
    80001466:	4785                	li	a5,1
    80001468:	06f71763          	bne	a4,a5,800014d6 <sched+0xa6>
  if(p->state == RUNNING)
    8000146c:	4c98                	lw	a4,24(s1)
    8000146e:	4791                	li	a5,4
    80001470:	06f70b63          	beq	a4,a5,800014e6 <sched+0xb6>
  asm volatile("csrr %0, sstatus" : "=r" (x) );
    80001474:	100027f3          	csrr	a5,sstatus
  return (x & SSTATUS_SIE) != 0;
    80001478:	8b89                	and	a5,a5,2
  if(intr_get())
    8000147a:	efb5                	bnez	a5,800014f6 <sched+0xc6>
  asm volatile("mv %0, tp" : "=r" (x) );
    8000147c:	8792                	mv	a5,tp
  intena = mycpu()->intena;
    8000147e:	00008917          	auipc	s2,0x8
    80001482:	bd290913          	add	s2,s2,-1070 # 80009050 <pid_lock>
    80001486:	2781                	sext.w	a5,a5
    80001488:	079e                	sll	a5,a5,0x7
    8000148a:	97ca                	add	a5,a5,s2
    8000148c:	0ac7a983          	lw	s3,172(a5)
    80001490:	8792                	mv	a5,tp
  swtch(&p->context, &mycpu()->context);
    80001492:	2781                	sext.w	a5,a5
    80001494:	079e                	sll	a5,a5,0x7
    80001496:	00008597          	auipc	a1,0x8
    8000149a:	bf258593          	add	a1,a1,-1038 # 80009088 <cpus+0x8>
    8000149e:	95be                	add	a1,a1,a5
    800014a0:	06048513          	add	a0,s1,96
    800014a4:	00000097          	auipc	ra,0x0
    800014a8:	59e080e7          	jalr	1438(ra) # 80001a42 <swtch>
    800014ac:	8792                	mv	a5,tp
  mycpu()->intena = intena;
    800014ae:	2781                	sext.w	a5,a5
    800014b0:	079e                	sll	a5,a5,0x7
    800014b2:	993e                	add	s2,s2,a5
    800014b4:	0b392623          	sw	s3,172(s2)
}
    800014b8:	70a2                	ld	ra,40(sp)
    800014ba:	7402                	ld	s0,32(sp)
    800014bc:	64e2                	ld	s1,24(sp)
    800014be:	6942                	ld	s2,16(sp)
    800014c0:	69a2                	ld	s3,8(sp)
    800014c2:	6145                	add	sp,sp,48
    800014c4:	8082                	ret
    panic("sched p->lock");
    800014c6:	00007517          	auipc	a0,0x7
    800014ca:	cd250513          	add	a0,a0,-814 # 80008198 <etext+0x198>
    800014ce:	00004097          	auipc	ra,0x4
    800014d2:	74e080e7          	jalr	1870(ra) # 80005c1c <panic>
    panic("sched locks");
    800014d6:	00007517          	auipc	a0,0x7
    800014da:	cd250513          	add	a0,a0,-814 # 800081a8 <etext+0x1a8>
    800014de:	00004097          	auipc	ra,0x4
    800014e2:	73e080e7          	jalr	1854(ra) # 80005c1c <panic>
    panic("sched running");
    800014e6:	00007517          	auipc	a0,0x7
    800014ea:	cd250513          	add	a0,a0,-814 # 800081b8 <etext+0x1b8>
    800014ee:	00004097          	auipc	ra,0x4
    800014f2:	72e080e7          	jalr	1838(ra) # 80005c1c <panic>
    panic("sched interruptible");
    800014f6:	00007517          	auipc	a0,0x7
    800014fa:	cd250513          	add	a0,a0,-814 # 800081c8 <etext+0x1c8>
    800014fe:	00004097          	auipc	ra,0x4
    80001502:	71e080e7          	jalr	1822(ra) # 80005c1c <panic>

0000000080001506 <yield>:
{
    80001506:	1101                	add	sp,sp,-32
    80001508:	ec06                	sd	ra,24(sp)
    8000150a:	e822                	sd	s0,16(sp)
    8000150c:	e426                	sd	s1,8(sp)
    8000150e:	1000                	add	s0,sp,32
  struct proc *p = myproc();
    80001510:	00000097          	auipc	ra,0x0
    80001514:	96c080e7          	jalr	-1684(ra) # 80000e7c <myproc>
    80001518:	84aa                	mv	s1,a0
  acquire(&p->lock);
    8000151a:	00005097          	auipc	ra,0x5
    8000151e:	c7c080e7          	jalr	-900(ra) # 80006196 <acquire>
  p->state = RUNNABLE;
    80001522:	478d                	li	a5,3
    80001524:	cc9c                	sw	a5,24(s1)
  sched();
    80001526:	00000097          	auipc	ra,0x0
    8000152a:	f0a080e7          	jalr	-246(ra) # 80001430 <sched>
  release(&p->lock);
    8000152e:	8526                	mv	a0,s1
    80001530:	00005097          	auipc	ra,0x5
    80001534:	d1a080e7          	jalr	-742(ra) # 8000624a <release>
}
    80001538:	60e2                	ld	ra,24(sp)
    8000153a:	6442                	ld	s0,16(sp)
    8000153c:	64a2                	ld	s1,8(sp)
    8000153e:	6105                	add	sp,sp,32
    80001540:	8082                	ret

0000000080001542 <sleep>:

// Atomically release lock and sleep on chan.
// Reacquires lock when awakened.
void
sleep(void *chan, struct spinlock *lk)
{
    80001542:	7179                	add	sp,sp,-48
    80001544:	f406                	sd	ra,40(sp)
    80001546:	f022                	sd	s0,32(sp)
    80001548:	ec26                	sd	s1,24(sp)
    8000154a:	e84a                	sd	s2,16(sp)
    8000154c:	e44e                	sd	s3,8(sp)
    8000154e:	1800                	add	s0,sp,48
    80001550:	89aa                	mv	s3,a0
    80001552:	892e                	mv	s2,a1
  struct proc *p = myproc();
    80001554:	00000097          	auipc	ra,0x0
    80001558:	928080e7          	jalr	-1752(ra) # 80000e7c <myproc>
    8000155c:	84aa                	mv	s1,a0
  // Once we hold p->lock, we can be
  // guaranteed that we won't miss any wakeup
  // (wakeup locks p->lock),
  // so it's okay to release lk.

  acquire(&p->lock);  //DOC: sleeplock1
    8000155e:	00005097          	auipc	ra,0x5
    80001562:	c38080e7          	jalr	-968(ra) # 80006196 <acquire>
  release(lk);
    80001566:	854a                	mv	a0,s2
    80001568:	00005097          	auipc	ra,0x5
    8000156c:	ce2080e7          	jalr	-798(ra) # 8000624a <release>

  // Go to sleep.
  p->chan = chan;
    80001570:	0334b023          	sd	s3,32(s1)
  p->state = SLEEPING;
    80001574:	4789                	li	a5,2
    80001576:	cc9c                	sw	a5,24(s1)

  sched();
    80001578:	00000097          	auipc	ra,0x0
    8000157c:	eb8080e7          	jalr	-328(ra) # 80001430 <sched>

  // Tidy up.
  p->chan = 0;
    80001580:	0204b023          	sd	zero,32(s1)

  // Reacquire original lock.
  release(&p->lock);
    80001584:	8526                	mv	a0,s1
    80001586:	00005097          	auipc	ra,0x5
    8000158a:	cc4080e7          	jalr	-828(ra) # 8000624a <release>
  acquire(lk);
    8000158e:	854a                	mv	a0,s2
    80001590:	00005097          	auipc	ra,0x5
    80001594:	c06080e7          	jalr	-1018(ra) # 80006196 <acquire>
}
    80001598:	70a2                	ld	ra,40(sp)
    8000159a:	7402                	ld	s0,32(sp)
    8000159c:	64e2                	ld	s1,24(sp)
    8000159e:	6942                	ld	s2,16(sp)
    800015a0:	69a2                	ld	s3,8(sp)
    800015a2:	6145                	add	sp,sp,48
    800015a4:	8082                	ret

00000000800015a6 <wait>:
{
    800015a6:	715d                	add	sp,sp,-80
    800015a8:	e486                	sd	ra,72(sp)
    800015aa:	e0a2                	sd	s0,64(sp)
    800015ac:	fc26                	sd	s1,56(sp)
    800015ae:	f84a                	sd	s2,48(sp)
    800015b0:	f44e                	sd	s3,40(sp)
    800015b2:	f052                	sd	s4,32(sp)
    800015b4:	ec56                	sd	s5,24(sp)
    800015b6:	e85a                	sd	s6,16(sp)
    800015b8:	e45e                	sd	s7,8(sp)
    800015ba:	e062                	sd	s8,0(sp)
    800015bc:	0880                	add	s0,sp,80
    800015be:	8b2a                	mv	s6,a0
  struct proc *p = myproc();
    800015c0:	00000097          	auipc	ra,0x0
    800015c4:	8bc080e7          	jalr	-1860(ra) # 80000e7c <myproc>
    800015c8:	892a                	mv	s2,a0
  acquire(&wait_lock);
    800015ca:	00008517          	auipc	a0,0x8
    800015ce:	a9e50513          	add	a0,a0,-1378 # 80009068 <wait_lock>
    800015d2:	00005097          	auipc	ra,0x5
    800015d6:	bc4080e7          	jalr	-1084(ra) # 80006196 <acquire>
    havekids = 0;
    800015da:	4b81                	li	s7,0
        if(np->state == ZOMBIE){
    800015dc:	4a15                	li	s4,5
        havekids = 1;
    800015de:	4a85                	li	s5,1
    for(np = proc; np < &proc[NPROC]; np++){
    800015e0:	0000e997          	auipc	s3,0xe
    800015e4:	8a098993          	add	s3,s3,-1888 # 8000ee80 <tickslock>
    sleep(p, &wait_lock);  //DOC: wait-sleep
    800015e8:	00008c17          	auipc	s8,0x8
    800015ec:	a80c0c13          	add	s8,s8,-1408 # 80009068 <wait_lock>
    800015f0:	a87d                	j	800016ae <wait+0x108>
          pid = np->pid;
    800015f2:	0304a983          	lw	s3,48(s1)
          if(addr != 0 && copyout(p->pagetable, addr, (char *)&np->xstate,
    800015f6:	000b0e63          	beqz	s6,80001612 <wait+0x6c>
    800015fa:	4691                	li	a3,4
    800015fc:	02c48613          	add	a2,s1,44
    80001600:	85da                	mv	a1,s6
    80001602:	05093503          	ld	a0,80(s2)
    80001606:	fffff097          	auipc	ra,0xfffff
    8000160a:	512080e7          	jalr	1298(ra) # 80000b18 <copyout>
    8000160e:	04054163          	bltz	a0,80001650 <wait+0xaa>
          freeproc(np);
    80001612:	8526                	mv	a0,s1
    80001614:	00000097          	auipc	ra,0x0
    80001618:	a1a080e7          	jalr	-1510(ra) # 8000102e <freeproc>
          release(&np->lock);
    8000161c:	8526                	mv	a0,s1
    8000161e:	00005097          	auipc	ra,0x5
    80001622:	c2c080e7          	jalr	-980(ra) # 8000624a <release>
          release(&wait_lock);
    80001626:	00008517          	auipc	a0,0x8
    8000162a:	a4250513          	add	a0,a0,-1470 # 80009068 <wait_lock>
    8000162e:	00005097          	auipc	ra,0x5
    80001632:	c1c080e7          	jalr	-996(ra) # 8000624a <release>
}
    80001636:	854e                	mv	a0,s3
    80001638:	60a6                	ld	ra,72(sp)
    8000163a:	6406                	ld	s0,64(sp)
    8000163c:	74e2                	ld	s1,56(sp)
    8000163e:	7942                	ld	s2,48(sp)
    80001640:	79a2                	ld	s3,40(sp)
    80001642:	7a02                	ld	s4,32(sp)
    80001644:	6ae2                	ld	s5,24(sp)
    80001646:	6b42                	ld	s6,16(sp)
    80001648:	6ba2                	ld	s7,8(sp)
    8000164a:	6c02                	ld	s8,0(sp)
    8000164c:	6161                	add	sp,sp,80
    8000164e:	8082                	ret
            release(&np->lock);
    80001650:	8526                	mv	a0,s1
    80001652:	00005097          	auipc	ra,0x5
    80001656:	bf8080e7          	jalr	-1032(ra) # 8000624a <release>
            release(&wait_lock);
    8000165a:	00008517          	auipc	a0,0x8
    8000165e:	a0e50513          	add	a0,a0,-1522 # 80009068 <wait_lock>
    80001662:	00005097          	auipc	ra,0x5
    80001666:	be8080e7          	jalr	-1048(ra) # 8000624a <release>
            return -1;
    8000166a:	59fd                	li	s3,-1
    8000166c:	b7e9                	j	80001636 <wait+0x90>
    for(np = proc; np < &proc[NPROC]; np++){
    8000166e:	16848493          	add	s1,s1,360
    80001672:	03348463          	beq	s1,s3,8000169a <wait+0xf4>
      if(np->parent == p){
    80001676:	7c9c                	ld	a5,56(s1)
    80001678:	ff279be3          	bne	a5,s2,8000166e <wait+0xc8>
        acquire(&np->lock);
    8000167c:	8526                	mv	a0,s1
    8000167e:	00005097          	auipc	ra,0x5
    80001682:	b18080e7          	jalr	-1256(ra) # 80006196 <acquire>
        if(np->state == ZOMBIE){
    80001686:	4c9c                	lw	a5,24(s1)
    80001688:	f74785e3          	beq	a5,s4,800015f2 <wait+0x4c>
        release(&np->lock);
    8000168c:	8526                	mv	a0,s1
    8000168e:	00005097          	auipc	ra,0x5
    80001692:	bbc080e7          	jalr	-1092(ra) # 8000624a <release>
        havekids = 1;
    80001696:	8756                	mv	a4,s5
    80001698:	bfd9                	j	8000166e <wait+0xc8>
    if(!havekids || p->killed){
    8000169a:	c305                	beqz	a4,800016ba <wait+0x114>
    8000169c:	02892783          	lw	a5,40(s2)
    800016a0:	ef89                	bnez	a5,800016ba <wait+0x114>
    sleep(p, &wait_lock);  //DOC: wait-sleep
    800016a2:	85e2                	mv	a1,s8
    800016a4:	854a                	mv	a0,s2
    800016a6:	00000097          	auipc	ra,0x0
    800016aa:	e9c080e7          	jalr	-356(ra) # 80001542 <sleep>
    havekids = 0;
    800016ae:	875e                	mv	a4,s7
    for(np = proc; np < &proc[NPROC]; np++){
    800016b0:	00008497          	auipc	s1,0x8
    800016b4:	dd048493          	add	s1,s1,-560 # 80009480 <proc>
    800016b8:	bf7d                	j	80001676 <wait+0xd0>
      release(&wait_lock);
    800016ba:	00008517          	auipc	a0,0x8
    800016be:	9ae50513          	add	a0,a0,-1618 # 80009068 <wait_lock>
    800016c2:	00005097          	auipc	ra,0x5
    800016c6:	b88080e7          	jalr	-1144(ra) # 8000624a <release>
      return -1;
    800016ca:	59fd                	li	s3,-1
    800016cc:	b7ad                	j	80001636 <wait+0x90>

00000000800016ce <wakeup>:

// Wake up all processes sleeping on chan.
// Must be called without any p->lock.
void
wakeup(void *chan)
{
    800016ce:	7139                	add	sp,sp,-64
    800016d0:	fc06                	sd	ra,56(sp)
    800016d2:	f822                	sd	s0,48(sp)
    800016d4:	f426                	sd	s1,40(sp)
    800016d6:	f04a                	sd	s2,32(sp)
    800016d8:	ec4e                	sd	s3,24(sp)
    800016da:	e852                	sd	s4,16(sp)
    800016dc:	e456                	sd	s5,8(sp)
    800016de:	0080                	add	s0,sp,64
    800016e0:	8a2a                	mv	s4,a0
  struct proc *p;

  for(p = proc; p < &proc[NPROC]; p++) {
    800016e2:	00008497          	auipc	s1,0x8
    800016e6:	d9e48493          	add	s1,s1,-610 # 80009480 <proc>
    if(p != myproc()){
      acquire(&p->lock);
      if(p->state == SLEEPING && p->chan == chan) {
    800016ea:	4989                	li	s3,2
        p->state = RUNNABLE;
    800016ec:	4a8d                	li	s5,3
  for(p = proc; p < &proc[NPROC]; p++) {
    800016ee:	0000d917          	auipc	s2,0xd
    800016f2:	79290913          	add	s2,s2,1938 # 8000ee80 <tickslock>
    800016f6:	a811                	j	8000170a <wakeup+0x3c>
      }
      release(&p->lock);
    800016f8:	8526                	mv	a0,s1
    800016fa:	00005097          	auipc	ra,0x5
    800016fe:	b50080e7          	jalr	-1200(ra) # 8000624a <release>
  for(p = proc; p < &proc[NPROC]; p++) {
    80001702:	16848493          	add	s1,s1,360
    80001706:	03248663          	beq	s1,s2,80001732 <wakeup+0x64>
    if(p != myproc()){
    8000170a:	fffff097          	auipc	ra,0xfffff
    8000170e:	772080e7          	jalr	1906(ra) # 80000e7c <myproc>
    80001712:	fea488e3          	beq	s1,a0,80001702 <wakeup+0x34>
      acquire(&p->lock);
    80001716:	8526                	mv	a0,s1
    80001718:	00005097          	auipc	ra,0x5
    8000171c:	a7e080e7          	jalr	-1410(ra) # 80006196 <acquire>
      if(p->state == SLEEPING && p->chan == chan) {
    80001720:	4c9c                	lw	a5,24(s1)
    80001722:	fd379be3          	bne	a5,s3,800016f8 <wakeup+0x2a>
    80001726:	709c                	ld	a5,32(s1)
    80001728:	fd4798e3          	bne	a5,s4,800016f8 <wakeup+0x2a>
        p->state = RUNNABLE;
    8000172c:	0154ac23          	sw	s5,24(s1)
    80001730:	b7e1                	j	800016f8 <wakeup+0x2a>
    }
  }
}
    80001732:	70e2                	ld	ra,56(sp)
    80001734:	7442                	ld	s0,48(sp)
    80001736:	74a2                	ld	s1,40(sp)
    80001738:	7902                	ld	s2,32(sp)
    8000173a:	69e2                	ld	s3,24(sp)
    8000173c:	6a42                	ld	s4,16(sp)
    8000173e:	6aa2                	ld	s5,8(sp)
    80001740:	6121                	add	sp,sp,64
    80001742:	8082                	ret

0000000080001744 <reparent>:
{
    80001744:	7179                	add	sp,sp,-48
    80001746:	f406                	sd	ra,40(sp)
    80001748:	f022                	sd	s0,32(sp)
    8000174a:	ec26                	sd	s1,24(sp)
    8000174c:	e84a                	sd	s2,16(sp)
    8000174e:	e44e                	sd	s3,8(sp)
    80001750:	e052                	sd	s4,0(sp)
    80001752:	1800                	add	s0,sp,48
    80001754:	892a                	mv	s2,a0
  for(pp = proc; pp < &proc[NPROC]; pp++){
    80001756:	00008497          	auipc	s1,0x8
    8000175a:	d2a48493          	add	s1,s1,-726 # 80009480 <proc>
      pp->parent = initproc;
    8000175e:	00008a17          	auipc	s4,0x8
    80001762:	8b2a0a13          	add	s4,s4,-1870 # 80009010 <initproc>
  for(pp = proc; pp < &proc[NPROC]; pp++){
    80001766:	0000d997          	auipc	s3,0xd
    8000176a:	71a98993          	add	s3,s3,1818 # 8000ee80 <tickslock>
    8000176e:	a029                	j	80001778 <reparent+0x34>
    80001770:	16848493          	add	s1,s1,360
    80001774:	01348d63          	beq	s1,s3,8000178e <reparent+0x4a>
    if(pp->parent == p){
    80001778:	7c9c                	ld	a5,56(s1)
    8000177a:	ff279be3          	bne	a5,s2,80001770 <reparent+0x2c>
      pp->parent = initproc;
    8000177e:	000a3503          	ld	a0,0(s4)
    80001782:	fc88                	sd	a0,56(s1)
      wakeup(initproc);
    80001784:	00000097          	auipc	ra,0x0
    80001788:	f4a080e7          	jalr	-182(ra) # 800016ce <wakeup>
    8000178c:	b7d5                	j	80001770 <reparent+0x2c>
}
    8000178e:	70a2                	ld	ra,40(sp)
    80001790:	7402                	ld	s0,32(sp)
    80001792:	64e2                	ld	s1,24(sp)
    80001794:	6942                	ld	s2,16(sp)
    80001796:	69a2                	ld	s3,8(sp)
    80001798:	6a02                	ld	s4,0(sp)
    8000179a:	6145                	add	sp,sp,48
    8000179c:	8082                	ret

000000008000179e <exit>:
{
    8000179e:	7179                	add	sp,sp,-48
    800017a0:	f406                	sd	ra,40(sp)
    800017a2:	f022                	sd	s0,32(sp)
    800017a4:	ec26                	sd	s1,24(sp)
    800017a6:	e84a                	sd	s2,16(sp)
    800017a8:	e44e                	sd	s3,8(sp)
    800017aa:	e052                	sd	s4,0(sp)
    800017ac:	1800                	add	s0,sp,48
    800017ae:	8a2a                	mv	s4,a0
  struct proc *p = myproc();
    800017b0:	fffff097          	auipc	ra,0xfffff
    800017b4:	6cc080e7          	jalr	1740(ra) # 80000e7c <myproc>
    800017b8:	89aa                	mv	s3,a0
  if(p == initproc)
    800017ba:	00008797          	auipc	a5,0x8
    800017be:	8567b783          	ld	a5,-1962(a5) # 80009010 <initproc>
    800017c2:	0d050493          	add	s1,a0,208
    800017c6:	15050913          	add	s2,a0,336
    800017ca:	02a79363          	bne	a5,a0,800017f0 <exit+0x52>
    panic("init exiting");
    800017ce:	00007517          	auipc	a0,0x7
    800017d2:	a1250513          	add	a0,a0,-1518 # 800081e0 <etext+0x1e0>
    800017d6:	00004097          	auipc	ra,0x4
    800017da:	446080e7          	jalr	1094(ra) # 80005c1c <panic>
      fileclose(f);
    800017de:	00002097          	auipc	ra,0x2
    800017e2:	16c080e7          	jalr	364(ra) # 8000394a <fileclose>
      p->ofile[fd] = 0;
    800017e6:	0004b023          	sd	zero,0(s1)
  for(int fd = 0; fd < NOFILE; fd++){
    800017ea:	04a1                	add	s1,s1,8
    800017ec:	01248563          	beq	s1,s2,800017f6 <exit+0x58>
    if(p->ofile[fd]){
    800017f0:	6088                	ld	a0,0(s1)
    800017f2:	f575                	bnez	a0,800017de <exit+0x40>
    800017f4:	bfdd                	j	800017ea <exit+0x4c>
  begin_op();
    800017f6:	00002097          	auipc	ra,0x2
    800017fa:	c8a080e7          	jalr	-886(ra) # 80003480 <begin_op>
  iput(p->cwd);
    800017fe:	1509b503          	ld	a0,336(s3)
    80001802:	00001097          	auipc	ra,0x1
    80001806:	46a080e7          	jalr	1130(ra) # 80002c6c <iput>
  end_op();
    8000180a:	00002097          	auipc	ra,0x2
    8000180e:	cf0080e7          	jalr	-784(ra) # 800034fa <end_op>
  p->cwd = 0;
    80001812:	1409b823          	sd	zero,336(s3)
  acquire(&wait_lock);
    80001816:	00008497          	auipc	s1,0x8
    8000181a:	85248493          	add	s1,s1,-1966 # 80009068 <wait_lock>
    8000181e:	8526                	mv	a0,s1
    80001820:	00005097          	auipc	ra,0x5
    80001824:	976080e7          	jalr	-1674(ra) # 80006196 <acquire>
  reparent(p);
    80001828:	854e                	mv	a0,s3
    8000182a:	00000097          	auipc	ra,0x0
    8000182e:	f1a080e7          	jalr	-230(ra) # 80001744 <reparent>
  wakeup(p->parent);
    80001832:	0389b503          	ld	a0,56(s3)
    80001836:	00000097          	auipc	ra,0x0
    8000183a:	e98080e7          	jalr	-360(ra) # 800016ce <wakeup>
  acquire(&p->lock);
    8000183e:	854e                	mv	a0,s3
    80001840:	00005097          	auipc	ra,0x5
    80001844:	956080e7          	jalr	-1706(ra) # 80006196 <acquire>
  p->xstate = status;
    80001848:	0349a623          	sw	s4,44(s3)
  p->state = ZOMBIE;
    8000184c:	4795                	li	a5,5
    8000184e:	00f9ac23          	sw	a5,24(s3)
  release(&wait_lock);
    80001852:	8526                	mv	a0,s1
    80001854:	00005097          	auipc	ra,0x5
    80001858:	9f6080e7          	jalr	-1546(ra) # 8000624a <release>
  sched();
    8000185c:	00000097          	auipc	ra,0x0
    80001860:	bd4080e7          	jalr	-1068(ra) # 80001430 <sched>
  panic("zombie exit");
    80001864:	00007517          	auipc	a0,0x7
    80001868:	98c50513          	add	a0,a0,-1652 # 800081f0 <etext+0x1f0>
    8000186c:	00004097          	auipc	ra,0x4
    80001870:	3b0080e7          	jalr	944(ra) # 80005c1c <panic>

0000000080001874 <kill>:
// Kill the process with the given pid.
// The victim won't exit until it tries to return
// to user space (see usertrap() in trap.c).
int
kill(int pid)
{
    80001874:	7179                	add	sp,sp,-48
    80001876:	f406                	sd	ra,40(sp)
    80001878:	f022                	sd	s0,32(sp)
    8000187a:	ec26                	sd	s1,24(sp)
    8000187c:	e84a                	sd	s2,16(sp)
    8000187e:	e44e                	sd	s3,8(sp)
    80001880:	1800                	add	s0,sp,48
    80001882:	892a                	mv	s2,a0
  struct proc *p;

  for(p = proc; p < &proc[NPROC]; p++){
    80001884:	00008497          	auipc	s1,0x8
    80001888:	bfc48493          	add	s1,s1,-1028 # 80009480 <proc>
    8000188c:	0000d997          	auipc	s3,0xd
    80001890:	5f498993          	add	s3,s3,1524 # 8000ee80 <tickslock>
    acquire(&p->lock);
    80001894:	8526                	mv	a0,s1
    80001896:	00005097          	auipc	ra,0x5
    8000189a:	900080e7          	jalr	-1792(ra) # 80006196 <acquire>
    if(p->pid == pid){
    8000189e:	589c                	lw	a5,48(s1)
    800018a0:	01278d63          	beq	a5,s2,800018ba <kill+0x46>
        p->state = RUNNABLE;
      }
      release(&p->lock);
      return 0;
    }
    release(&p->lock);
    800018a4:	8526                	mv	a0,s1
    800018a6:	00005097          	auipc	ra,0x5
    800018aa:	9a4080e7          	jalr	-1628(ra) # 8000624a <release>
  for(p = proc; p < &proc[NPROC]; p++){
    800018ae:	16848493          	add	s1,s1,360
    800018b2:	ff3491e3          	bne	s1,s3,80001894 <kill+0x20>
  }
  return -1;
    800018b6:	557d                	li	a0,-1
    800018b8:	a829                	j	800018d2 <kill+0x5e>
      p->killed = 1;
    800018ba:	4785                	li	a5,1
    800018bc:	d49c                	sw	a5,40(s1)
      if(p->state == SLEEPING){
    800018be:	4c98                	lw	a4,24(s1)
    800018c0:	4789                	li	a5,2
    800018c2:	00f70f63          	beq	a4,a5,800018e0 <kill+0x6c>
      release(&p->lock);
    800018c6:	8526                	mv	a0,s1
    800018c8:	00005097          	auipc	ra,0x5
    800018cc:	982080e7          	jalr	-1662(ra) # 8000624a <release>
      return 0;
    800018d0:	4501                	li	a0,0
}
    800018d2:	70a2                	ld	ra,40(sp)
    800018d4:	7402                	ld	s0,32(sp)
    800018d6:	64e2                	ld	s1,24(sp)
    800018d8:	6942                	ld	s2,16(sp)
    800018da:	69a2                	ld	s3,8(sp)
    800018dc:	6145                	add	sp,sp,48
    800018de:	8082                	ret
        p->state = RUNNABLE;
    800018e0:	478d                	li	a5,3
    800018e2:	cc9c                	sw	a5,24(s1)
    800018e4:	b7cd                	j	800018c6 <kill+0x52>

00000000800018e6 <either_copyout>:
// Copy to either a user address, or kernel address,
// depending on usr_dst.
// Returns 0 on success, -1 on error.
int
either_copyout(int user_dst, uint64 dst, void *src, uint64 len)
{
    800018e6:	7179                	add	sp,sp,-48
    800018e8:	f406                	sd	ra,40(sp)
    800018ea:	f022                	sd	s0,32(sp)
    800018ec:	ec26                	sd	s1,24(sp)
    800018ee:	e84a                	sd	s2,16(sp)
    800018f0:	e44e                	sd	s3,8(sp)
    800018f2:	e052                	sd	s4,0(sp)
    800018f4:	1800                	add	s0,sp,48
    800018f6:	84aa                	mv	s1,a0
    800018f8:	892e                	mv	s2,a1
    800018fa:	89b2                	mv	s3,a2
    800018fc:	8a36                	mv	s4,a3
  struct proc *p = myproc();
    800018fe:	fffff097          	auipc	ra,0xfffff
    80001902:	57e080e7          	jalr	1406(ra) # 80000e7c <myproc>
  if(user_dst){
    80001906:	c08d                	beqz	s1,80001928 <either_copyout+0x42>
    return copyout(p->pagetable, dst, src, len);
    80001908:	86d2                	mv	a3,s4
    8000190a:	864e                	mv	a2,s3
    8000190c:	85ca                	mv	a1,s2
    8000190e:	6928                	ld	a0,80(a0)
    80001910:	fffff097          	auipc	ra,0xfffff
    80001914:	208080e7          	jalr	520(ra) # 80000b18 <copyout>
  } else {
    memmove((char *)dst, src, len);
    return 0;
  }
}
    80001918:	70a2                	ld	ra,40(sp)
    8000191a:	7402                	ld	s0,32(sp)
    8000191c:	64e2                	ld	s1,24(sp)
    8000191e:	6942                	ld	s2,16(sp)
    80001920:	69a2                	ld	s3,8(sp)
    80001922:	6a02                	ld	s4,0(sp)
    80001924:	6145                	add	sp,sp,48
    80001926:	8082                	ret
    memmove((char *)dst, src, len);
    80001928:	000a061b          	sext.w	a2,s4
    8000192c:	85ce                	mv	a1,s3
    8000192e:	854a                	mv	a0,s2
    80001930:	fffff097          	auipc	ra,0xfffff
    80001934:	8a6080e7          	jalr	-1882(ra) # 800001d6 <memmove>
    return 0;
    80001938:	8526                	mv	a0,s1
    8000193a:	bff9                	j	80001918 <either_copyout+0x32>

000000008000193c <either_copyin>:
// Copy from either a user address, or kernel address,
// depending on usr_src.
// Returns 0 on success, -1 on error.
int
either_copyin(void *dst, int user_src, uint64 src, uint64 len)
{
    8000193c:	7179                	add	sp,sp,-48
    8000193e:	f406                	sd	ra,40(sp)
    80001940:	f022                	sd	s0,32(sp)
    80001942:	ec26                	sd	s1,24(sp)
    80001944:	e84a                	sd	s2,16(sp)
    80001946:	e44e                	sd	s3,8(sp)
    80001948:	e052                	sd	s4,0(sp)
    8000194a:	1800                	add	s0,sp,48
    8000194c:	892a                	mv	s2,a0
    8000194e:	84ae                	mv	s1,a1
    80001950:	89b2                	mv	s3,a2
    80001952:	8a36                	mv	s4,a3
  struct proc *p = myproc();
    80001954:	fffff097          	auipc	ra,0xfffff
    80001958:	528080e7          	jalr	1320(ra) # 80000e7c <myproc>
  if(user_src){
    8000195c:	c08d                	beqz	s1,8000197e <either_copyin+0x42>
    return copyin(p->pagetable, dst, src, len);
    8000195e:	86d2                	mv	a3,s4
    80001960:	864e                	mv	a2,s3
    80001962:	85ca                	mv	a1,s2
    80001964:	6928                	ld	a0,80(a0)
    80001966:	fffff097          	auipc	ra,0xfffff
    8000196a:	23e080e7          	jalr	574(ra) # 80000ba4 <copyin>
  } else {
    memmove(dst, (char*)src, len);
    return 0;
  }
}
    8000196e:	70a2                	ld	ra,40(sp)
    80001970:	7402                	ld	s0,32(sp)
    80001972:	64e2                	ld	s1,24(sp)
    80001974:	6942                	ld	s2,16(sp)
    80001976:	69a2                	ld	s3,8(sp)
    80001978:	6a02                	ld	s4,0(sp)
    8000197a:	6145                	add	sp,sp,48
    8000197c:	8082                	ret
    memmove(dst, (char*)src, len);
    8000197e:	000a061b          	sext.w	a2,s4
    80001982:	85ce                	mv	a1,s3
    80001984:	854a                	mv	a0,s2
    80001986:	fffff097          	auipc	ra,0xfffff
    8000198a:	850080e7          	jalr	-1968(ra) # 800001d6 <memmove>
    return 0;
    8000198e:	8526                	mv	a0,s1
    80001990:	bff9                	j	8000196e <either_copyin+0x32>

0000000080001992 <procdump>:
// Print a process listing to console.  For debugging.
// Runs when user types ^P on console.
// No lock to avoid wedging a stuck machine further.
void
procdump(void)
{
    80001992:	715d                	add	sp,sp,-80
    80001994:	e486                	sd	ra,72(sp)
    80001996:	e0a2                	sd	s0,64(sp)
    80001998:	fc26                	sd	s1,56(sp)
    8000199a:	f84a                	sd	s2,48(sp)
    8000199c:	f44e                	sd	s3,40(sp)
    8000199e:	f052                	sd	s4,32(sp)
    800019a0:	ec56                	sd	s5,24(sp)
    800019a2:	e85a                	sd	s6,16(sp)
    800019a4:	e45e                	sd	s7,8(sp)
    800019a6:	0880                	add	s0,sp,80
  [ZOMBIE]    "zombie"
  };
  struct proc *p;
  char *state;

  printf("\n");
    800019a8:	00006517          	auipc	a0,0x6
    800019ac:	67050513          	add	a0,a0,1648 # 80008018 <etext+0x18>
    800019b0:	00004097          	auipc	ra,0x4
    800019b4:	2b6080e7          	jalr	694(ra) # 80005c66 <printf>
  for(p = proc; p < &proc[NPROC]; p++){
    800019b8:	00008497          	auipc	s1,0x8
    800019bc:	c2048493          	add	s1,s1,-992 # 800095d8 <proc+0x158>
    800019c0:	0000d917          	auipc	s2,0xd
    800019c4:	61890913          	add	s2,s2,1560 # 8000efd8 <bcache+0x140>
    if(p->state == UNUSED)
      continue;
    if(p->state >= 0 && p->state < NELEM(states) && states[p->state])
    800019c8:	4b15                	li	s6,5
      state = states[p->state];
    else
      state = "???";
    800019ca:	00007997          	auipc	s3,0x7
    800019ce:	83698993          	add	s3,s3,-1994 # 80008200 <etext+0x200>
    printf("%d %s %s", p->pid, state, p->name);
    800019d2:	00007a97          	auipc	s5,0x7
    800019d6:	836a8a93          	add	s5,s5,-1994 # 80008208 <etext+0x208>
    printf("\n");
    800019da:	00006a17          	auipc	s4,0x6
    800019de:	63ea0a13          	add	s4,s4,1598 # 80008018 <etext+0x18>
    if(p->state >= 0 && p->state < NELEM(states) && states[p->state])
    800019e2:	00007b97          	auipc	s7,0x7
    800019e6:	d1eb8b93          	add	s7,s7,-738 # 80008700 <states.0>
    800019ea:	a00d                	j	80001a0c <procdump+0x7a>
    printf("%d %s %s", p->pid, state, p->name);
    800019ec:	ed86a583          	lw	a1,-296(a3)
    800019f0:	8556                	mv	a0,s5
    800019f2:	00004097          	auipc	ra,0x4
    800019f6:	274080e7          	jalr	628(ra) # 80005c66 <printf>
    printf("\n");
    800019fa:	8552                	mv	a0,s4
    800019fc:	00004097          	auipc	ra,0x4
    80001a00:	26a080e7          	jalr	618(ra) # 80005c66 <printf>
  for(p = proc; p < &proc[NPROC]; p++){
    80001a04:	16848493          	add	s1,s1,360
    80001a08:	03248263          	beq	s1,s2,80001a2c <procdump+0x9a>
    if(p->state == UNUSED)
    80001a0c:	86a6                	mv	a3,s1
    80001a0e:	ec04a783          	lw	a5,-320(s1)
    80001a12:	dbed                	beqz	a5,80001a04 <procdump+0x72>
      state = "???";
    80001a14:	864e                	mv	a2,s3
    if(p->state >= 0 && p->state < NELEM(states) && states[p->state])
    80001a16:	fcfb6be3          	bltu	s6,a5,800019ec <procdump+0x5a>
    80001a1a:	02079713          	sll	a4,a5,0x20
    80001a1e:	01d75793          	srl	a5,a4,0x1d
    80001a22:	97de                	add	a5,a5,s7
    80001a24:	6390                	ld	a2,0(a5)
    80001a26:	f279                	bnez	a2,800019ec <procdump+0x5a>
      state = "???";
    80001a28:	864e                	mv	a2,s3
    80001a2a:	b7c9                	j	800019ec <procdump+0x5a>
  }
}
    80001a2c:	60a6                	ld	ra,72(sp)
    80001a2e:	6406                	ld	s0,64(sp)
    80001a30:	74e2                	ld	s1,56(sp)
    80001a32:	7942                	ld	s2,48(sp)
    80001a34:	79a2                	ld	s3,40(sp)
    80001a36:	7a02                	ld	s4,32(sp)
    80001a38:	6ae2                	ld	s5,24(sp)
    80001a3a:	6b42                	ld	s6,16(sp)
    80001a3c:	6ba2                	ld	s7,8(sp)
    80001a3e:	6161                	add	sp,sp,80
    80001a40:	8082                	ret

0000000080001a42 <swtch>:
    80001a42:	00153023          	sd	ra,0(a0)
    80001a46:	00253423          	sd	sp,8(a0)
    80001a4a:	e900                	sd	s0,16(a0)
    80001a4c:	ed04                	sd	s1,24(a0)
    80001a4e:	03253023          	sd	s2,32(a0)
    80001a52:	03353423          	sd	s3,40(a0)
    80001a56:	03453823          	sd	s4,48(a0)
    80001a5a:	03553c23          	sd	s5,56(a0)
    80001a5e:	05653023          	sd	s6,64(a0)
    80001a62:	05753423          	sd	s7,72(a0)
    80001a66:	05853823          	sd	s8,80(a0)
    80001a6a:	05953c23          	sd	s9,88(a0)
    80001a6e:	07a53023          	sd	s10,96(a0)
    80001a72:	07b53423          	sd	s11,104(a0)
    80001a76:	0005b083          	ld	ra,0(a1)
    80001a7a:	0085b103          	ld	sp,8(a1)
    80001a7e:	6980                	ld	s0,16(a1)
    80001a80:	6d84                	ld	s1,24(a1)
    80001a82:	0205b903          	ld	s2,32(a1)
    80001a86:	0285b983          	ld	s3,40(a1)
    80001a8a:	0305ba03          	ld	s4,48(a1)
    80001a8e:	0385ba83          	ld	s5,56(a1)
    80001a92:	0405bb03          	ld	s6,64(a1)
    80001a96:	0485bb83          	ld	s7,72(a1)
    80001a9a:	0505bc03          	ld	s8,80(a1)
    80001a9e:	0585bc83          	ld	s9,88(a1)
    80001aa2:	0605bd03          	ld	s10,96(a1)
    80001aa6:	0685bd83          	ld	s11,104(a1)
    80001aaa:	8082                	ret

0000000080001aac <trapinit>:

extern int devintr();

void
trapinit(void)
{
    80001aac:	1141                	add	sp,sp,-16
    80001aae:	e406                	sd	ra,8(sp)
    80001ab0:	e022                	sd	s0,0(sp)
    80001ab2:	0800                	add	s0,sp,16
  initlock(&tickslock, "time");
    80001ab4:	00006597          	auipc	a1,0x6
    80001ab8:	78c58593          	add	a1,a1,1932 # 80008240 <etext+0x240>
    80001abc:	0000d517          	auipc	a0,0xd
    80001ac0:	3c450513          	add	a0,a0,964 # 8000ee80 <tickslock>
    80001ac4:	00004097          	auipc	ra,0x4
    80001ac8:	642080e7          	jalr	1602(ra) # 80006106 <initlock>
}
    80001acc:	60a2                	ld	ra,8(sp)
    80001ace:	6402                	ld	s0,0(sp)
    80001ad0:	0141                	add	sp,sp,16
    80001ad2:	8082                	ret

0000000080001ad4 <trapinithart>:

// set up to take exceptions and traps while in the kernel.
void
trapinithart(void)
{
    80001ad4:	1141                	add	sp,sp,-16
    80001ad6:	e422                	sd	s0,8(sp)
    80001ad8:	0800                	add	s0,sp,16
  asm volatile("csrw stvec, %0" : : "r" (x));
    80001ada:	00003797          	auipc	a5,0x3
    80001ade:	55678793          	add	a5,a5,1366 # 80005030 <kernelvec>
    80001ae2:	10579073          	csrw	stvec,a5
  w_stvec((uint64)kernelvec);
}
    80001ae6:	6422                	ld	s0,8(sp)
    80001ae8:	0141                	add	sp,sp,16
    80001aea:	8082                	ret

0000000080001aec <usertrapret>:
//
// return to user space
//
void
usertrapret(void)
{
    80001aec:	1141                	add	sp,sp,-16
    80001aee:	e406                	sd	ra,8(sp)
    80001af0:	e022                	sd	s0,0(sp)
    80001af2:	0800                	add	s0,sp,16
  struct proc *p = myproc();
    80001af4:	fffff097          	auipc	ra,0xfffff
    80001af8:	388080e7          	jalr	904(ra) # 80000e7c <myproc>
  asm volatile("csrr %0, sstatus" : "=r" (x) );
    80001afc:	100027f3          	csrr	a5,sstatus
  w_sstatus(r_sstatus() & ~SSTATUS_SIE);
    80001b00:	9bf5                	and	a5,a5,-3
  asm volatile("csrw sstatus, %0" : : "r" (x));
    80001b02:	10079073          	csrw	sstatus,a5
  // kerneltrap() to usertrap(), so turn off interrupts until
  // we're back in user space, where usertrap() is correct.
  intr_off();

  // send syscalls, interrupts, and exceptions to trampoline.S
  w_stvec(TRAMPOLINE + (uservec - trampoline));
    80001b06:	00005697          	auipc	a3,0x5
    80001b0a:	4fa68693          	add	a3,a3,1274 # 80007000 <_trampoline>
    80001b0e:	00005717          	auipc	a4,0x5
    80001b12:	4f270713          	add	a4,a4,1266 # 80007000 <_trampoline>
    80001b16:	8f15                	sub	a4,a4,a3
    80001b18:	040007b7          	lui	a5,0x4000
    80001b1c:	17fd                	add	a5,a5,-1 # 3ffffff <_entry-0x7c000001>
    80001b1e:	07b2                	sll	a5,a5,0xc
    80001b20:	973e                	add	a4,a4,a5
  asm volatile("csrw stvec, %0" : : "r" (x));
    80001b22:	10571073          	csrw	stvec,a4

  // set up trapframe values that uservec will need when
  // the process next re-enters the kernel.
  p->trapframe->kernel_satp = r_satp();         // kernel page table
    80001b26:	6d38                	ld	a4,88(a0)
  asm volatile("csrr %0, satp" : "=r" (x) );
    80001b28:	18002673          	csrr	a2,satp
    80001b2c:	e310                	sd	a2,0(a4)
  p->trapframe->kernel_sp = p->kstack + PGSIZE; // process's kernel stack
    80001b2e:	6d30                	ld	a2,88(a0)
    80001b30:	6138                	ld	a4,64(a0)
    80001b32:	6585                	lui	a1,0x1
    80001b34:	972e                	add	a4,a4,a1
    80001b36:	e618                	sd	a4,8(a2)
  p->trapframe->kernel_trap = (uint64)usertrap;
    80001b38:	6d38                	ld	a4,88(a0)
    80001b3a:	00000617          	auipc	a2,0x0
    80001b3e:	14060613          	add	a2,a2,320 # 80001c7a <usertrap>
    80001b42:	eb10                	sd	a2,16(a4)
  p->trapframe->kernel_hartid = r_tp();         // hartid for cpuid()
    80001b44:	6d38                	ld	a4,88(a0)
  asm volatile("mv %0, tp" : "=r" (x) );
    80001b46:	8612                	mv	a2,tp
    80001b48:	f310                	sd	a2,32(a4)
  asm volatile("csrr %0, sstatus" : "=r" (x) );
    80001b4a:	10002773          	csrr	a4,sstatus
  // set up the registers that trampoline.S's sret will use
  // to get to user space.
  
  // set S Previous Privilege mode to User.
  unsigned long x = r_sstatus();
  x &= ~SSTATUS_SPP; // clear SPP to 0 for user mode
    80001b4e:	eff77713          	and	a4,a4,-257
  x |= SSTATUS_SPIE; // enable interrupts in user mode
    80001b52:	02076713          	or	a4,a4,32
  asm volatile("csrw sstatus, %0" : : "r" (x));
    80001b56:	10071073          	csrw	sstatus,a4
  w_sstatus(x);

  // set S Exception Program Counter to the saved user pc.
  w_sepc(p->trapframe->epc);
    80001b5a:	6d38                	ld	a4,88(a0)
  asm volatile("csrw sepc, %0" : : "r" (x));
    80001b5c:	6f18                	ld	a4,24(a4)
    80001b5e:	14171073          	csrw	sepc,a4

  // tell trampoline.S the user page table to switch to.
  uint64 satp = MAKE_SATP(p->pagetable);
    80001b62:	692c                	ld	a1,80(a0)
    80001b64:	81b1                	srl	a1,a1,0xc

  // jump to trampoline.S at the top of memory, which 
  // switches to the user page table, restores user registers,
  // and switches to user mode with sret.
  uint64 fn = TRAMPOLINE + (userret - trampoline);
    80001b66:	00005717          	auipc	a4,0x5
    80001b6a:	52a70713          	add	a4,a4,1322 # 80007090 <userret>
    80001b6e:	8f15                	sub	a4,a4,a3
    80001b70:	97ba                	add	a5,a5,a4
  ((void (*)(uint64,uint64))fn)(TRAPFRAME, satp);
    80001b72:	577d                	li	a4,-1
    80001b74:	177e                	sll	a4,a4,0x3f
    80001b76:	8dd9                	or	a1,a1,a4
    80001b78:	02000537          	lui	a0,0x2000
    80001b7c:	157d                	add	a0,a0,-1 # 1ffffff <_entry-0x7e000001>
    80001b7e:	0536                	sll	a0,a0,0xd
    80001b80:	9782                	jalr	a5
}
    80001b82:	60a2                	ld	ra,8(sp)
    80001b84:	6402                	ld	s0,0(sp)
    80001b86:	0141                	add	sp,sp,16
    80001b88:	8082                	ret

0000000080001b8a <clockintr>:
  w_sstatus(sstatus);
}

void
clockintr()
{
    80001b8a:	1101                	add	sp,sp,-32
    80001b8c:	ec06                	sd	ra,24(sp)
    80001b8e:	e822                	sd	s0,16(sp)
    80001b90:	e426                	sd	s1,8(sp)
    80001b92:	1000                	add	s0,sp,32
  acquire(&tickslock);
    80001b94:	0000d497          	auipc	s1,0xd
    80001b98:	2ec48493          	add	s1,s1,748 # 8000ee80 <tickslock>
    80001b9c:	8526                	mv	a0,s1
    80001b9e:	00004097          	auipc	ra,0x4
    80001ba2:	5f8080e7          	jalr	1528(ra) # 80006196 <acquire>
  ticks++;
    80001ba6:	00007517          	auipc	a0,0x7
    80001baa:	47250513          	add	a0,a0,1138 # 80009018 <ticks>
    80001bae:	411c                	lw	a5,0(a0)
    80001bb0:	2785                	addw	a5,a5,1
    80001bb2:	c11c                	sw	a5,0(a0)
  wakeup(&ticks);
    80001bb4:	00000097          	auipc	ra,0x0
    80001bb8:	b1a080e7          	jalr	-1254(ra) # 800016ce <wakeup>
  release(&tickslock);
    80001bbc:	8526                	mv	a0,s1
    80001bbe:	00004097          	auipc	ra,0x4
    80001bc2:	68c080e7          	jalr	1676(ra) # 8000624a <release>
}
    80001bc6:	60e2                	ld	ra,24(sp)
    80001bc8:	6442                	ld	s0,16(sp)
    80001bca:	64a2                	ld	s1,8(sp)
    80001bcc:	6105                	add	sp,sp,32
    80001bce:	8082                	ret

0000000080001bd0 <devintr>:
  asm volatile("csrr %0, scause" : "=r" (x) );
    80001bd0:	142027f3          	csrr	a5,scause
    // the SSIP bit in sip.
    w_sip(r_sip() & ~2);

    return 2;
  } else {
    return 0;
    80001bd4:	4501                	li	a0,0
  if((scause & 0x8000000000000000L) &&
    80001bd6:	0a07d163          	bgez	a5,80001c78 <devintr+0xa8>
{
    80001bda:	1101                	add	sp,sp,-32
    80001bdc:	ec06                	sd	ra,24(sp)
    80001bde:	e822                	sd	s0,16(sp)
    80001be0:	1000                	add	s0,sp,32
     (scause & 0xff) == 9){
    80001be2:	0ff7f713          	zext.b	a4,a5
  if((scause & 0x8000000000000000L) &&
    80001be6:	46a5                	li	a3,9
    80001be8:	00d70c63          	beq	a4,a3,80001c00 <devintr+0x30>
  } else if(scause == 0x8000000000000001L){
    80001bec:	577d                	li	a4,-1
    80001bee:	177e                	sll	a4,a4,0x3f
    80001bf0:	0705                	add	a4,a4,1
    return 0;
    80001bf2:	4501                	li	a0,0
  } else if(scause == 0x8000000000000001L){
    80001bf4:	06e78163          	beq	a5,a4,80001c56 <devintr+0x86>
  }
}
    80001bf8:	60e2                	ld	ra,24(sp)
    80001bfa:	6442                	ld	s0,16(sp)
    80001bfc:	6105                	add	sp,sp,32
    80001bfe:	8082                	ret
    80001c00:	e426                	sd	s1,8(sp)
    int irq = plic_claim();
    80001c02:	00003097          	auipc	ra,0x3
    80001c06:	53a080e7          	jalr	1338(ra) # 8000513c <plic_claim>
    80001c0a:	84aa                	mv	s1,a0
    if(irq == UART0_IRQ){
    80001c0c:	47a9                	li	a5,10
    80001c0e:	00f50963          	beq	a0,a5,80001c20 <devintr+0x50>
    } else if(irq == VIRTIO0_IRQ){
    80001c12:	4785                	li	a5,1
    80001c14:	00f50b63          	beq	a0,a5,80001c2a <devintr+0x5a>
    return 1;
    80001c18:	4505                	li	a0,1
    } else if(irq){
    80001c1a:	ec89                	bnez	s1,80001c34 <devintr+0x64>
    80001c1c:	64a2                	ld	s1,8(sp)
    80001c1e:	bfe9                	j	80001bf8 <devintr+0x28>
      uartintr();
    80001c20:	00004097          	auipc	ra,0x4
    80001c24:	496080e7          	jalr	1174(ra) # 800060b6 <uartintr>
    if(irq)
    80001c28:	a839                	j	80001c46 <devintr+0x76>
      virtio_disk_intr();
    80001c2a:	00004097          	auipc	ra,0x4
    80001c2e:	9e6080e7          	jalr	-1562(ra) # 80005610 <virtio_disk_intr>
    if(irq)
    80001c32:	a811                	j	80001c46 <devintr+0x76>
      printf("unexpected interrupt irq=%d\n", irq);
    80001c34:	85a6                	mv	a1,s1
    80001c36:	00006517          	auipc	a0,0x6
    80001c3a:	61250513          	add	a0,a0,1554 # 80008248 <etext+0x248>
    80001c3e:	00004097          	auipc	ra,0x4
    80001c42:	028080e7          	jalr	40(ra) # 80005c66 <printf>
      plic_complete(irq);
    80001c46:	8526                	mv	a0,s1
    80001c48:	00003097          	auipc	ra,0x3
    80001c4c:	518080e7          	jalr	1304(ra) # 80005160 <plic_complete>
    return 1;
    80001c50:	4505                	li	a0,1
    80001c52:	64a2                	ld	s1,8(sp)
    80001c54:	b755                	j	80001bf8 <devintr+0x28>
    if(cpuid() == 0){
    80001c56:	fffff097          	auipc	ra,0xfffff
    80001c5a:	1fa080e7          	jalr	506(ra) # 80000e50 <cpuid>
    80001c5e:	c901                	beqz	a0,80001c6e <devintr+0x9e>
  asm volatile("csrr %0, sip" : "=r" (x) );
    80001c60:	144027f3          	csrr	a5,sip
    w_sip(r_sip() & ~2);
    80001c64:	9bf5                	and	a5,a5,-3
  asm volatile("csrw sip, %0" : : "r" (x));
    80001c66:	14479073          	csrw	sip,a5
    return 2;
    80001c6a:	4509                	li	a0,2
    80001c6c:	b771                	j	80001bf8 <devintr+0x28>
      clockintr();
    80001c6e:	00000097          	auipc	ra,0x0
    80001c72:	f1c080e7          	jalr	-228(ra) # 80001b8a <clockintr>
    80001c76:	b7ed                	j	80001c60 <devintr+0x90>
}
    80001c78:	8082                	ret

0000000080001c7a <usertrap>:
{
    80001c7a:	1101                	add	sp,sp,-32
    80001c7c:	ec06                	sd	ra,24(sp)
    80001c7e:	e822                	sd	s0,16(sp)
    80001c80:	e426                	sd	s1,8(sp)
    80001c82:	e04a                	sd	s2,0(sp)
    80001c84:	1000                	add	s0,sp,32
  asm volatile("csrr %0, sstatus" : "=r" (x) );
    80001c86:	100027f3          	csrr	a5,sstatus
  if((r_sstatus() & SSTATUS_SPP) != 0)
    80001c8a:	1007f793          	and	a5,a5,256
    80001c8e:	e3ad                	bnez	a5,80001cf0 <usertrap+0x76>
  asm volatile("csrw stvec, %0" : : "r" (x));
    80001c90:	00003797          	auipc	a5,0x3
    80001c94:	3a078793          	add	a5,a5,928 # 80005030 <kernelvec>
    80001c98:	10579073          	csrw	stvec,a5
  struct proc *p = myproc();
    80001c9c:	fffff097          	auipc	ra,0xfffff
    80001ca0:	1e0080e7          	jalr	480(ra) # 80000e7c <myproc>
    80001ca4:	84aa                	mv	s1,a0
  p->trapframe->epc = r_sepc();
    80001ca6:	6d3c                	ld	a5,88(a0)
  asm volatile("csrr %0, sepc" : "=r" (x) );
    80001ca8:	14102773          	csrr	a4,sepc
    80001cac:	ef98                	sd	a4,24(a5)
  asm volatile("csrr %0, scause" : "=r" (x) );
    80001cae:	14202773          	csrr	a4,scause
  if(r_scause() == 8){
    80001cb2:	47a1                	li	a5,8
    80001cb4:	04f71c63          	bne	a4,a5,80001d0c <usertrap+0x92>
    if(p->killed)
    80001cb8:	551c                	lw	a5,40(a0)
    80001cba:	e3b9                	bnez	a5,80001d00 <usertrap+0x86>
    p->trapframe->epc += 4;
    80001cbc:	6cb8                	ld	a4,88(s1)
    80001cbe:	6f1c                	ld	a5,24(a4)
    80001cc0:	0791                	add	a5,a5,4
    80001cc2:	ef1c                	sd	a5,24(a4)
  asm volatile("csrr %0, sstatus" : "=r" (x) );
    80001cc4:	100027f3          	csrr	a5,sstatus
  w_sstatus(r_sstatus() | SSTATUS_SIE);
    80001cc8:	0027e793          	or	a5,a5,2
  asm volatile("csrw sstatus, %0" : : "r" (x));
    80001ccc:	10079073          	csrw	sstatus,a5
    syscall();
    80001cd0:	00000097          	auipc	ra,0x0
    80001cd4:	2e0080e7          	jalr	736(ra) # 80001fb0 <syscall>
  if(p->killed)
    80001cd8:	549c                	lw	a5,40(s1)
    80001cda:	ebc1                	bnez	a5,80001d6a <usertrap+0xf0>
  usertrapret();
    80001cdc:	00000097          	auipc	ra,0x0
    80001ce0:	e10080e7          	jalr	-496(ra) # 80001aec <usertrapret>
}
    80001ce4:	60e2                	ld	ra,24(sp)
    80001ce6:	6442                	ld	s0,16(sp)
    80001ce8:	64a2                	ld	s1,8(sp)
    80001cea:	6902                	ld	s2,0(sp)
    80001cec:	6105                	add	sp,sp,32
    80001cee:	8082                	ret
    panic("usertrap: not from user mode");
    80001cf0:	00006517          	auipc	a0,0x6
    80001cf4:	57850513          	add	a0,a0,1400 # 80008268 <etext+0x268>
    80001cf8:	00004097          	auipc	ra,0x4
    80001cfc:	f24080e7          	jalr	-220(ra) # 80005c1c <panic>
      exit(-1);
    80001d00:	557d                	li	a0,-1
    80001d02:	00000097          	auipc	ra,0x0
    80001d06:	a9c080e7          	jalr	-1380(ra) # 8000179e <exit>
    80001d0a:	bf4d                	j	80001cbc <usertrap+0x42>
  } else if((which_dev = devintr()) != 0){
    80001d0c:	00000097          	auipc	ra,0x0
    80001d10:	ec4080e7          	jalr	-316(ra) # 80001bd0 <devintr>
    80001d14:	892a                	mv	s2,a0
    80001d16:	c501                	beqz	a0,80001d1e <usertrap+0xa4>
  if(p->killed)
    80001d18:	549c                	lw	a5,40(s1)
    80001d1a:	c3a1                	beqz	a5,80001d5a <usertrap+0xe0>
    80001d1c:	a815                	j	80001d50 <usertrap+0xd6>
  asm volatile("csrr %0, scause" : "=r" (x) );
    80001d1e:	142025f3          	csrr	a1,scause
    printf("usertrap(): unexpected scause %p pid=%d\n", r_scause(), p->pid);
    80001d22:	5890                	lw	a2,48(s1)
    80001d24:	00006517          	auipc	a0,0x6
    80001d28:	56450513          	add	a0,a0,1380 # 80008288 <etext+0x288>
    80001d2c:	00004097          	auipc	ra,0x4
    80001d30:	f3a080e7          	jalr	-198(ra) # 80005c66 <printf>
  asm volatile("csrr %0, sepc" : "=r" (x) );
    80001d34:	141025f3          	csrr	a1,sepc
  asm volatile("csrr %0, stval" : "=r" (x) );
    80001d38:	14302673          	csrr	a2,stval
    printf("            sepc=%p stval=%p\n", r_sepc(), r_stval());
    80001d3c:	00006517          	auipc	a0,0x6
    80001d40:	57c50513          	add	a0,a0,1404 # 800082b8 <etext+0x2b8>
    80001d44:	00004097          	auipc	ra,0x4
    80001d48:	f22080e7          	jalr	-222(ra) # 80005c66 <printf>
    p->killed = 1;
    80001d4c:	4785                	li	a5,1
    80001d4e:	d49c                	sw	a5,40(s1)
    exit(-1);
    80001d50:	557d                	li	a0,-1
    80001d52:	00000097          	auipc	ra,0x0
    80001d56:	a4c080e7          	jalr	-1460(ra) # 8000179e <exit>
  if(which_dev == 2)
    80001d5a:	4789                	li	a5,2
    80001d5c:	f8f910e3          	bne	s2,a5,80001cdc <usertrap+0x62>
    yield();
    80001d60:	fffff097          	auipc	ra,0xfffff
    80001d64:	7a6080e7          	jalr	1958(ra) # 80001506 <yield>
    80001d68:	bf95                	j	80001cdc <usertrap+0x62>
  int which_dev = 0;
    80001d6a:	4901                	li	s2,0
    80001d6c:	b7d5                	j	80001d50 <usertrap+0xd6>

0000000080001d6e <kerneltrap>:
{
    80001d6e:	7179                	add	sp,sp,-48
    80001d70:	f406                	sd	ra,40(sp)
    80001d72:	f022                	sd	s0,32(sp)
    80001d74:	ec26                	sd	s1,24(sp)
    80001d76:	e84a                	sd	s2,16(sp)
    80001d78:	e44e                	sd	s3,8(sp)
    80001d7a:	1800                	add	s0,sp,48
  asm volatile("csrr %0, sepc" : "=r" (x) );
    80001d7c:	14102973          	csrr	s2,sepc
  asm volatile("csrr %0, sstatus" : "=r" (x) );
    80001d80:	100024f3          	csrr	s1,sstatus
  asm volatile("csrr %0, scause" : "=r" (x) );
    80001d84:	142029f3          	csrr	s3,scause
  if((sstatus & SSTATUS_SPP) == 0)
    80001d88:	1004f793          	and	a5,s1,256
    80001d8c:	cb85                	beqz	a5,80001dbc <kerneltrap+0x4e>
  asm volatile("csrr %0, sstatus" : "=r" (x) );
    80001d8e:	100027f3          	csrr	a5,sstatus
  return (x & SSTATUS_SIE) != 0;
    80001d92:	8b89                	and	a5,a5,2
  if(intr_get() != 0)
    80001d94:	ef85                	bnez	a5,80001dcc <kerneltrap+0x5e>
  if((which_dev = devintr()) == 0){
    80001d96:	00000097          	auipc	ra,0x0
    80001d9a:	e3a080e7          	jalr	-454(ra) # 80001bd0 <devintr>
    80001d9e:	cd1d                	beqz	a0,80001ddc <kerneltrap+0x6e>
  if(which_dev == 2 && myproc() != 0 && myproc()->state == RUNNING)
    80001da0:	4789                	li	a5,2
    80001da2:	06f50a63          	beq	a0,a5,80001e16 <kerneltrap+0xa8>
  asm volatile("csrw sepc, %0" : : "r" (x));
    80001da6:	14191073          	csrw	sepc,s2
  asm volatile("csrw sstatus, %0" : : "r" (x));
    80001daa:	10049073          	csrw	sstatus,s1
}
    80001dae:	70a2                	ld	ra,40(sp)
    80001db0:	7402                	ld	s0,32(sp)
    80001db2:	64e2                	ld	s1,24(sp)
    80001db4:	6942                	ld	s2,16(sp)
    80001db6:	69a2                	ld	s3,8(sp)
    80001db8:	6145                	add	sp,sp,48
    80001dba:	8082                	ret
    panic("kerneltrap: not from supervisor mode");
    80001dbc:	00006517          	auipc	a0,0x6
    80001dc0:	51c50513          	add	a0,a0,1308 # 800082d8 <etext+0x2d8>
    80001dc4:	00004097          	auipc	ra,0x4
    80001dc8:	e58080e7          	jalr	-424(ra) # 80005c1c <panic>
    panic("kerneltrap: interrupts enabled");
    80001dcc:	00006517          	auipc	a0,0x6
    80001dd0:	53450513          	add	a0,a0,1332 # 80008300 <etext+0x300>
    80001dd4:	00004097          	auipc	ra,0x4
    80001dd8:	e48080e7          	jalr	-440(ra) # 80005c1c <panic>
    printf("scause %p\n", scause);
    80001ddc:	85ce                	mv	a1,s3
    80001dde:	00006517          	auipc	a0,0x6
    80001de2:	54250513          	add	a0,a0,1346 # 80008320 <etext+0x320>
    80001de6:	00004097          	auipc	ra,0x4
    80001dea:	e80080e7          	jalr	-384(ra) # 80005c66 <printf>
  asm volatile("csrr %0, sepc" : "=r" (x) );
    80001dee:	141025f3          	csrr	a1,sepc
  asm volatile("csrr %0, stval" : "=r" (x) );
    80001df2:	14302673          	csrr	a2,stval
    printf("sepc=%p stval=%p\n", r_sepc(), r_stval());
    80001df6:	00006517          	auipc	a0,0x6
    80001dfa:	53a50513          	add	a0,a0,1338 # 80008330 <etext+0x330>
    80001dfe:	00004097          	auipc	ra,0x4
    80001e02:	e68080e7          	jalr	-408(ra) # 80005c66 <printf>
    panic("kerneltrap");
    80001e06:	00006517          	auipc	a0,0x6
    80001e0a:	54250513          	add	a0,a0,1346 # 80008348 <etext+0x348>
    80001e0e:	00004097          	auipc	ra,0x4
    80001e12:	e0e080e7          	jalr	-498(ra) # 80005c1c <panic>
  if(which_dev == 2 && myproc() != 0 && myproc()->state == RUNNING)
    80001e16:	fffff097          	auipc	ra,0xfffff
    80001e1a:	066080e7          	jalr	102(ra) # 80000e7c <myproc>
    80001e1e:	d541                	beqz	a0,80001da6 <kerneltrap+0x38>
    80001e20:	fffff097          	auipc	ra,0xfffff
    80001e24:	05c080e7          	jalr	92(ra) # 80000e7c <myproc>
    80001e28:	4d18                	lw	a4,24(a0)
    80001e2a:	4791                	li	a5,4
    80001e2c:	f6f71de3          	bne	a4,a5,80001da6 <kerneltrap+0x38>
    yield();
    80001e30:	fffff097          	auipc	ra,0xfffff
    80001e34:	6d6080e7          	jalr	1750(ra) # 80001506 <yield>
    80001e38:	b7bd                	j	80001da6 <kerneltrap+0x38>

0000000080001e3a <argraw>:
  return strlen(buf);
}

static uint64
argraw(int n)
{
    80001e3a:	1101                	add	sp,sp,-32
    80001e3c:	ec06                	sd	ra,24(sp)
    80001e3e:	e822                	sd	s0,16(sp)
    80001e40:	e426                	sd	s1,8(sp)
    80001e42:	1000                	add	s0,sp,32
    80001e44:	84aa                	mv	s1,a0
  struct proc *p = myproc();
    80001e46:	fffff097          	auipc	ra,0xfffff
    80001e4a:	036080e7          	jalr	54(ra) # 80000e7c <myproc>
  switch (n) {
    80001e4e:	4795                	li	a5,5
    80001e50:	0497e163          	bltu	a5,s1,80001e92 <argraw+0x58>
    80001e54:	048a                	sll	s1,s1,0x2
    80001e56:	00007717          	auipc	a4,0x7
    80001e5a:	8da70713          	add	a4,a4,-1830 # 80008730 <states.0+0x30>
    80001e5e:	94ba                	add	s1,s1,a4
    80001e60:	409c                	lw	a5,0(s1)
    80001e62:	97ba                	add	a5,a5,a4
    80001e64:	8782                	jr	a5
  case 0:
    return p->trapframe->a0;
    80001e66:	6d3c                	ld	a5,88(a0)
    80001e68:	7ba8                	ld	a0,112(a5)
  case 5:
    return p->trapframe->a5;
  }
  panic("argraw");
  return -1;
}
    80001e6a:	60e2                	ld	ra,24(sp)
    80001e6c:	6442                	ld	s0,16(sp)
    80001e6e:	64a2                	ld	s1,8(sp)
    80001e70:	6105                	add	sp,sp,32
    80001e72:	8082                	ret
    return p->trapframe->a1;
    80001e74:	6d3c                	ld	a5,88(a0)
    80001e76:	7fa8                	ld	a0,120(a5)
    80001e78:	bfcd                	j	80001e6a <argraw+0x30>
    return p->trapframe->a2;
    80001e7a:	6d3c                	ld	a5,88(a0)
    80001e7c:	63c8                	ld	a0,128(a5)
    80001e7e:	b7f5                	j	80001e6a <argraw+0x30>
    return p->trapframe->a3;
    80001e80:	6d3c                	ld	a5,88(a0)
    80001e82:	67c8                	ld	a0,136(a5)
    80001e84:	b7dd                	j	80001e6a <argraw+0x30>
    return p->trapframe->a4;
    80001e86:	6d3c                	ld	a5,88(a0)
    80001e88:	6bc8                	ld	a0,144(a5)
    80001e8a:	b7c5                	j	80001e6a <argraw+0x30>
    return p->trapframe->a5;
    80001e8c:	6d3c                	ld	a5,88(a0)
    80001e8e:	6fc8                	ld	a0,152(a5)
    80001e90:	bfe9                	j	80001e6a <argraw+0x30>
  panic("argraw");
    80001e92:	00006517          	auipc	a0,0x6
    80001e96:	4c650513          	add	a0,a0,1222 # 80008358 <etext+0x358>
    80001e9a:	00004097          	auipc	ra,0x4
    80001e9e:	d82080e7          	jalr	-638(ra) # 80005c1c <panic>

0000000080001ea2 <fetchaddr>:
{
    80001ea2:	1101                	add	sp,sp,-32
    80001ea4:	ec06                	sd	ra,24(sp)
    80001ea6:	e822                	sd	s0,16(sp)
    80001ea8:	e426                	sd	s1,8(sp)
    80001eaa:	e04a                	sd	s2,0(sp)
    80001eac:	1000                	add	s0,sp,32
    80001eae:	84aa                	mv	s1,a0
    80001eb0:	892e                	mv	s2,a1
  struct proc *p = myproc();
    80001eb2:	fffff097          	auipc	ra,0xfffff
    80001eb6:	fca080e7          	jalr	-54(ra) # 80000e7c <myproc>
  if(addr >= p->sz || addr+sizeof(uint64) > p->sz)
    80001eba:	653c                	ld	a5,72(a0)
    80001ebc:	02f4f863          	bgeu	s1,a5,80001eec <fetchaddr+0x4a>
    80001ec0:	00848713          	add	a4,s1,8
    80001ec4:	02e7e663          	bltu	a5,a4,80001ef0 <fetchaddr+0x4e>
  if(copyin(p->pagetable, (char *)ip, addr, sizeof(*ip)) != 0)
    80001ec8:	46a1                	li	a3,8
    80001eca:	8626                	mv	a2,s1
    80001ecc:	85ca                	mv	a1,s2
    80001ece:	6928                	ld	a0,80(a0)
    80001ed0:	fffff097          	auipc	ra,0xfffff
    80001ed4:	cd4080e7          	jalr	-812(ra) # 80000ba4 <copyin>
    80001ed8:	00a03533          	snez	a0,a0
    80001edc:	40a00533          	neg	a0,a0
}
    80001ee0:	60e2                	ld	ra,24(sp)
    80001ee2:	6442                	ld	s0,16(sp)
    80001ee4:	64a2                	ld	s1,8(sp)
    80001ee6:	6902                	ld	s2,0(sp)
    80001ee8:	6105                	add	sp,sp,32
    80001eea:	8082                	ret
    return -1;
    80001eec:	557d                	li	a0,-1
    80001eee:	bfcd                	j	80001ee0 <fetchaddr+0x3e>
    80001ef0:	557d                	li	a0,-1
    80001ef2:	b7fd                	j	80001ee0 <fetchaddr+0x3e>

0000000080001ef4 <fetchstr>:
{
    80001ef4:	7179                	add	sp,sp,-48
    80001ef6:	f406                	sd	ra,40(sp)
    80001ef8:	f022                	sd	s0,32(sp)
    80001efa:	ec26                	sd	s1,24(sp)
    80001efc:	e84a                	sd	s2,16(sp)
    80001efe:	e44e                	sd	s3,8(sp)
    80001f00:	1800                	add	s0,sp,48
    80001f02:	892a                	mv	s2,a0
    80001f04:	84ae                	mv	s1,a1
    80001f06:	89b2                	mv	s3,a2
  struct proc *p = myproc();
    80001f08:	fffff097          	auipc	ra,0xfffff
    80001f0c:	f74080e7          	jalr	-140(ra) # 80000e7c <myproc>
  int err = copyinstr(p->pagetable, buf, addr, max);
    80001f10:	86ce                	mv	a3,s3
    80001f12:	864a                	mv	a2,s2
    80001f14:	85a6                	mv	a1,s1
    80001f16:	6928                	ld	a0,80(a0)
    80001f18:	fffff097          	auipc	ra,0xfffff
    80001f1c:	d1a080e7          	jalr	-742(ra) # 80000c32 <copyinstr>
  if(err < 0)
    80001f20:	00054763          	bltz	a0,80001f2e <fetchstr+0x3a>
  return strlen(buf);
    80001f24:	8526                	mv	a0,s1
    80001f26:	ffffe097          	auipc	ra,0xffffe
    80001f2a:	3c8080e7          	jalr	968(ra) # 800002ee <strlen>
}
    80001f2e:	70a2                	ld	ra,40(sp)
    80001f30:	7402                	ld	s0,32(sp)
    80001f32:	64e2                	ld	s1,24(sp)
    80001f34:	6942                	ld	s2,16(sp)
    80001f36:	69a2                	ld	s3,8(sp)
    80001f38:	6145                	add	sp,sp,48
    80001f3a:	8082                	ret

0000000080001f3c <argint>:

// Fetch the nth 32-bit system call argument.
int
argint(int n, int *ip)
{
    80001f3c:	1101                	add	sp,sp,-32
    80001f3e:	ec06                	sd	ra,24(sp)
    80001f40:	e822                	sd	s0,16(sp)
    80001f42:	e426                	sd	s1,8(sp)
    80001f44:	1000                	add	s0,sp,32
    80001f46:	84ae                	mv	s1,a1
  *ip = argraw(n);
    80001f48:	00000097          	auipc	ra,0x0
    80001f4c:	ef2080e7          	jalr	-270(ra) # 80001e3a <argraw>
    80001f50:	c088                	sw	a0,0(s1)
  return 0;
}
    80001f52:	4501                	li	a0,0
    80001f54:	60e2                	ld	ra,24(sp)
    80001f56:	6442                	ld	s0,16(sp)
    80001f58:	64a2                	ld	s1,8(sp)
    80001f5a:	6105                	add	sp,sp,32
    80001f5c:	8082                	ret

0000000080001f5e <argaddr>:
// Retrieve an argument as a pointer.
// Doesn't check for legality, since
// copyin/copyout will do that.
int
argaddr(int n, uint64 *ip)
{
    80001f5e:	1101                	add	sp,sp,-32
    80001f60:	ec06                	sd	ra,24(sp)
    80001f62:	e822                	sd	s0,16(sp)
    80001f64:	e426                	sd	s1,8(sp)
    80001f66:	1000                	add	s0,sp,32
    80001f68:	84ae                	mv	s1,a1
  *ip = argraw(n);
    80001f6a:	00000097          	auipc	ra,0x0
    80001f6e:	ed0080e7          	jalr	-304(ra) # 80001e3a <argraw>
    80001f72:	e088                	sd	a0,0(s1)
  return 0;
}
    80001f74:	4501                	li	a0,0
    80001f76:	60e2                	ld	ra,24(sp)
    80001f78:	6442                	ld	s0,16(sp)
    80001f7a:	64a2                	ld	s1,8(sp)
    80001f7c:	6105                	add	sp,sp,32
    80001f7e:	8082                	ret

0000000080001f80 <argstr>:
// Fetch the nth word-sized system call argument as a null-terminated string.
// Copies into buf, at most max.
// Returns string length if OK (including nul), -1 if error.
int
argstr(int n, char *buf, int max)
{
    80001f80:	1101                	add	sp,sp,-32
    80001f82:	ec06                	sd	ra,24(sp)
    80001f84:	e822                	sd	s0,16(sp)
    80001f86:	e426                	sd	s1,8(sp)
    80001f88:	e04a                	sd	s2,0(sp)
    80001f8a:	1000                	add	s0,sp,32
    80001f8c:	84ae                	mv	s1,a1
    80001f8e:	8932                	mv	s2,a2
  *ip = argraw(n);
    80001f90:	00000097          	auipc	ra,0x0
    80001f94:	eaa080e7          	jalr	-342(ra) # 80001e3a <argraw>
  uint64 addr;
  if(argaddr(n, &addr) < 0)
    return -1;
  return fetchstr(addr, buf, max);
    80001f98:	864a                	mv	a2,s2
    80001f9a:	85a6                	mv	a1,s1
    80001f9c:	00000097          	auipc	ra,0x0
    80001fa0:	f58080e7          	jalr	-168(ra) # 80001ef4 <fetchstr>
}
    80001fa4:	60e2                	ld	ra,24(sp)
    80001fa6:	6442                	ld	s0,16(sp)
    80001fa8:	64a2                	ld	s1,8(sp)
    80001faa:	6902                	ld	s2,0(sp)
    80001fac:	6105                	add	sp,sp,32
    80001fae:	8082                	ret

0000000080001fb0 <syscall>:
[SYS_close]   sys_close,
};

void
syscall(void)
{
    80001fb0:	1101                	add	sp,sp,-32
    80001fb2:	ec06                	sd	ra,24(sp)
    80001fb4:	e822                	sd	s0,16(sp)
    80001fb6:	e426                	sd	s1,8(sp)
    80001fb8:	e04a                	sd	s2,0(sp)
    80001fba:	1000                	add	s0,sp,32
  int num;
  struct proc *p = myproc();
    80001fbc:	fffff097          	auipc	ra,0xfffff
    80001fc0:	ec0080e7          	jalr	-320(ra) # 80000e7c <myproc>
    80001fc4:	84aa                	mv	s1,a0

  num = p->trapframe->a7;
    80001fc6:	05853903          	ld	s2,88(a0)
    80001fca:	0a893783          	ld	a5,168(s2)
    80001fce:	0007869b          	sext.w	a3,a5
  if(num > 0 && num < NELEM(syscalls) && syscalls[num]) {
    80001fd2:	37fd                	addw	a5,a5,-1
    80001fd4:	4751                	li	a4,20
    80001fd6:	00f76f63          	bltu	a4,a5,80001ff4 <syscall+0x44>
    80001fda:	00369713          	sll	a4,a3,0x3
    80001fde:	00006797          	auipc	a5,0x6
    80001fe2:	76a78793          	add	a5,a5,1898 # 80008748 <syscalls>
    80001fe6:	97ba                	add	a5,a5,a4
    80001fe8:	639c                	ld	a5,0(a5)
    80001fea:	c789                	beqz	a5,80001ff4 <syscall+0x44>
    p->trapframe->a0 = syscalls[num]();
    80001fec:	9782                	jalr	a5
    80001fee:	06a93823          	sd	a0,112(s2)
    80001ff2:	a839                	j	80002010 <syscall+0x60>
  } else {
    printf("%d %s: unknown sys call %d\n",
    80001ff4:	15848613          	add	a2,s1,344
    80001ff8:	588c                	lw	a1,48(s1)
    80001ffa:	00006517          	auipc	a0,0x6
    80001ffe:	36650513          	add	a0,a0,870 # 80008360 <etext+0x360>
    80002002:	00004097          	auipc	ra,0x4
    80002006:	c64080e7          	jalr	-924(ra) # 80005c66 <printf>
            p->pid, p->name, num);
    p->trapframe->a0 = -1;
    8000200a:	6cbc                	ld	a5,88(s1)
    8000200c:	577d                	li	a4,-1
    8000200e:	fbb8                	sd	a4,112(a5)
  }
}
    80002010:	60e2                	ld	ra,24(sp)
    80002012:	6442                	ld	s0,16(sp)
    80002014:	64a2                	ld	s1,8(sp)
    80002016:	6902                	ld	s2,0(sp)
    80002018:	6105                	add	sp,sp,32
    8000201a:	8082                	ret

000000008000201c <sys_exit>:
#include "spinlock.h"
#include "proc.h"

uint64
sys_exit(void)
{
    8000201c:	1101                	add	sp,sp,-32
    8000201e:	ec06                	sd	ra,24(sp)
    80002020:	e822                	sd	s0,16(sp)
    80002022:	1000                	add	s0,sp,32
  int n;
  if(argint(0, &n) < 0)
    80002024:	fec40593          	add	a1,s0,-20
    80002028:	4501                	li	a0,0
    8000202a:	00000097          	auipc	ra,0x0
    8000202e:	f12080e7          	jalr	-238(ra) # 80001f3c <argint>
    return -1;
    80002032:	57fd                	li	a5,-1
  if(argint(0, &n) < 0)
    80002034:	00054963          	bltz	a0,80002046 <sys_exit+0x2a>
  exit(n);
    80002038:	fec42503          	lw	a0,-20(s0)
    8000203c:	fffff097          	auipc	ra,0xfffff
    80002040:	762080e7          	jalr	1890(ra) # 8000179e <exit>
  return 0;  // not reached
    80002044:	4781                	li	a5,0
}
    80002046:	853e                	mv	a0,a5
    80002048:	60e2                	ld	ra,24(sp)
    8000204a:	6442                	ld	s0,16(sp)
    8000204c:	6105                	add	sp,sp,32
    8000204e:	8082                	ret

0000000080002050 <sys_getpid>:

uint64
sys_getpid(void)
{
    80002050:	1141                	add	sp,sp,-16
    80002052:	e406                	sd	ra,8(sp)
    80002054:	e022                	sd	s0,0(sp)
    80002056:	0800                	add	s0,sp,16
  return myproc()->pid;
    80002058:	fffff097          	auipc	ra,0xfffff
    8000205c:	e24080e7          	jalr	-476(ra) # 80000e7c <myproc>
}
    80002060:	5908                	lw	a0,48(a0)
    80002062:	60a2                	ld	ra,8(sp)
    80002064:	6402                	ld	s0,0(sp)
    80002066:	0141                	add	sp,sp,16
    80002068:	8082                	ret

000000008000206a <sys_fork>:

uint64
sys_fork(void)
{
    8000206a:	1141                	add	sp,sp,-16
    8000206c:	e406                	sd	ra,8(sp)
    8000206e:	e022                	sd	s0,0(sp)
    80002070:	0800                	add	s0,sp,16
  return fork();
    80002072:	fffff097          	auipc	ra,0xfffff
    80002076:	1dc080e7          	jalr	476(ra) # 8000124e <fork>
}
    8000207a:	60a2                	ld	ra,8(sp)
    8000207c:	6402                	ld	s0,0(sp)
    8000207e:	0141                	add	sp,sp,16
    80002080:	8082                	ret

0000000080002082 <sys_wait>:

uint64
sys_wait(void)
{
    80002082:	1101                	add	sp,sp,-32
    80002084:	ec06                	sd	ra,24(sp)
    80002086:	e822                	sd	s0,16(sp)
    80002088:	1000                	add	s0,sp,32
  uint64 p;
  if(argaddr(0, &p) < 0)
    8000208a:	fe840593          	add	a1,s0,-24
    8000208e:	4501                	li	a0,0
    80002090:	00000097          	auipc	ra,0x0
    80002094:	ece080e7          	jalr	-306(ra) # 80001f5e <argaddr>
    80002098:	87aa                	mv	a5,a0
    return -1;
    8000209a:	557d                	li	a0,-1
  if(argaddr(0, &p) < 0)
    8000209c:	0007c863          	bltz	a5,800020ac <sys_wait+0x2a>
  return wait(p);
    800020a0:	fe843503          	ld	a0,-24(s0)
    800020a4:	fffff097          	auipc	ra,0xfffff
    800020a8:	502080e7          	jalr	1282(ra) # 800015a6 <wait>
}
    800020ac:	60e2                	ld	ra,24(sp)
    800020ae:	6442                	ld	s0,16(sp)
    800020b0:	6105                	add	sp,sp,32
    800020b2:	8082                	ret

00000000800020b4 <sys_sbrk>:

uint64
sys_sbrk(void)
{
    800020b4:	7179                	add	sp,sp,-48
    800020b6:	f406                	sd	ra,40(sp)
    800020b8:	f022                	sd	s0,32(sp)
    800020ba:	1800                	add	s0,sp,48
  int addr;
  int n;

  if(argint(0, &n) < 0)
    800020bc:	fdc40593          	add	a1,s0,-36
    800020c0:	4501                	li	a0,0
    800020c2:	00000097          	auipc	ra,0x0
    800020c6:	e7a080e7          	jalr	-390(ra) # 80001f3c <argint>
    800020ca:	87aa                	mv	a5,a0
    return -1;
    800020cc:	557d                	li	a0,-1
  if(argint(0, &n) < 0)
    800020ce:	0207c263          	bltz	a5,800020f2 <sys_sbrk+0x3e>
    800020d2:	ec26                	sd	s1,24(sp)
  addr = myproc()->sz;
    800020d4:	fffff097          	auipc	ra,0xfffff
    800020d8:	da8080e7          	jalr	-600(ra) # 80000e7c <myproc>
    800020dc:	4524                	lw	s1,72(a0)
  if(growproc(n) < 0)
    800020de:	fdc42503          	lw	a0,-36(s0)
    800020e2:	fffff097          	auipc	ra,0xfffff
    800020e6:	0f4080e7          	jalr	244(ra) # 800011d6 <growproc>
    800020ea:	00054863          	bltz	a0,800020fa <sys_sbrk+0x46>
    return -1;
  return addr;
    800020ee:	8526                	mv	a0,s1
    800020f0:	64e2                	ld	s1,24(sp)
}
    800020f2:	70a2                	ld	ra,40(sp)
    800020f4:	7402                	ld	s0,32(sp)
    800020f6:	6145                	add	sp,sp,48
    800020f8:	8082                	ret
    return -1;
    800020fa:	557d                	li	a0,-1
    800020fc:	64e2                	ld	s1,24(sp)
    800020fe:	bfd5                	j	800020f2 <sys_sbrk+0x3e>

0000000080002100 <sys_sleep>:

uint64
sys_sleep(void)
{
    80002100:	7139                	add	sp,sp,-64
    80002102:	fc06                	sd	ra,56(sp)
    80002104:	f822                	sd	s0,48(sp)
    80002106:	0080                	add	s0,sp,64
  int n;
  uint ticks0;

  if(argint(0, &n) < 0)
    80002108:	fcc40593          	add	a1,s0,-52
    8000210c:	4501                	li	a0,0
    8000210e:	00000097          	auipc	ra,0x0
    80002112:	e2e080e7          	jalr	-466(ra) # 80001f3c <argint>
    return -1;
    80002116:	57fd                	li	a5,-1
  if(argint(0, &n) < 0)
    80002118:	06054b63          	bltz	a0,8000218e <sys_sleep+0x8e>
    8000211c:	f04a                	sd	s2,32(sp)
  acquire(&tickslock);
    8000211e:	0000d517          	auipc	a0,0xd
    80002122:	d6250513          	add	a0,a0,-670 # 8000ee80 <tickslock>
    80002126:	00004097          	auipc	ra,0x4
    8000212a:	070080e7          	jalr	112(ra) # 80006196 <acquire>
  ticks0 = ticks;
    8000212e:	00007917          	auipc	s2,0x7
    80002132:	eea92903          	lw	s2,-278(s2) # 80009018 <ticks>
  while(ticks - ticks0 < n){
    80002136:	fcc42783          	lw	a5,-52(s0)
    8000213a:	c3a1                	beqz	a5,8000217a <sys_sleep+0x7a>
    8000213c:	f426                	sd	s1,40(sp)
    8000213e:	ec4e                	sd	s3,24(sp)
    if(myproc()->killed){
      release(&tickslock);
      return -1;
    }
    sleep(&ticks, &tickslock);
    80002140:	0000d997          	auipc	s3,0xd
    80002144:	d4098993          	add	s3,s3,-704 # 8000ee80 <tickslock>
    80002148:	00007497          	auipc	s1,0x7
    8000214c:	ed048493          	add	s1,s1,-304 # 80009018 <ticks>
    if(myproc()->killed){
    80002150:	fffff097          	auipc	ra,0xfffff
    80002154:	d2c080e7          	jalr	-724(ra) # 80000e7c <myproc>
    80002158:	551c                	lw	a5,40(a0)
    8000215a:	ef9d                	bnez	a5,80002198 <sys_sleep+0x98>
    sleep(&ticks, &tickslock);
    8000215c:	85ce                	mv	a1,s3
    8000215e:	8526                	mv	a0,s1
    80002160:	fffff097          	auipc	ra,0xfffff
    80002164:	3e2080e7          	jalr	994(ra) # 80001542 <sleep>
  while(ticks - ticks0 < n){
    80002168:	409c                	lw	a5,0(s1)
    8000216a:	412787bb          	subw	a5,a5,s2
    8000216e:	fcc42703          	lw	a4,-52(s0)
    80002172:	fce7efe3          	bltu	a5,a4,80002150 <sys_sleep+0x50>
    80002176:	74a2                	ld	s1,40(sp)
    80002178:	69e2                	ld	s3,24(sp)
  }
  release(&tickslock);
    8000217a:	0000d517          	auipc	a0,0xd
    8000217e:	d0650513          	add	a0,a0,-762 # 8000ee80 <tickslock>
    80002182:	00004097          	auipc	ra,0x4
    80002186:	0c8080e7          	jalr	200(ra) # 8000624a <release>
  return 0;
    8000218a:	4781                	li	a5,0
    8000218c:	7902                	ld	s2,32(sp)
}
    8000218e:	853e                	mv	a0,a5
    80002190:	70e2                	ld	ra,56(sp)
    80002192:	7442                	ld	s0,48(sp)
    80002194:	6121                	add	sp,sp,64
    80002196:	8082                	ret
      release(&tickslock);
    80002198:	0000d517          	auipc	a0,0xd
    8000219c:	ce850513          	add	a0,a0,-792 # 8000ee80 <tickslock>
    800021a0:	00004097          	auipc	ra,0x4
    800021a4:	0aa080e7          	jalr	170(ra) # 8000624a <release>
      return -1;
    800021a8:	57fd                	li	a5,-1
    800021aa:	74a2                	ld	s1,40(sp)
    800021ac:	7902                	ld	s2,32(sp)
    800021ae:	69e2                	ld	s3,24(sp)
    800021b0:	bff9                	j	8000218e <sys_sleep+0x8e>

00000000800021b2 <sys_kill>:

uint64
sys_kill(void)
{
    800021b2:	1101                	add	sp,sp,-32
    800021b4:	ec06                	sd	ra,24(sp)
    800021b6:	e822                	sd	s0,16(sp)
    800021b8:	1000                	add	s0,sp,32
  int pid;

  if(argint(0, &pid) < 0)
    800021ba:	fec40593          	add	a1,s0,-20
    800021be:	4501                	li	a0,0
    800021c0:	00000097          	auipc	ra,0x0
    800021c4:	d7c080e7          	jalr	-644(ra) # 80001f3c <argint>
    800021c8:	87aa                	mv	a5,a0
    return -1;
    800021ca:	557d                	li	a0,-1
  if(argint(0, &pid) < 0)
    800021cc:	0007c863          	bltz	a5,800021dc <sys_kill+0x2a>
  return kill(pid);
    800021d0:	fec42503          	lw	a0,-20(s0)
    800021d4:	fffff097          	auipc	ra,0xfffff
    800021d8:	6a0080e7          	jalr	1696(ra) # 80001874 <kill>
}
    800021dc:	60e2                	ld	ra,24(sp)
    800021de:	6442                	ld	s0,16(sp)
    800021e0:	6105                	add	sp,sp,32
    800021e2:	8082                	ret

00000000800021e4 <sys_uptime>:

// return how many clock tick interrupts have occurred
// since start.
uint64
sys_uptime(void)
{
    800021e4:	1101                	add	sp,sp,-32
    800021e6:	ec06                	sd	ra,24(sp)
    800021e8:	e822                	sd	s0,16(sp)
    800021ea:	e426                	sd	s1,8(sp)
    800021ec:	1000                	add	s0,sp,32
  uint xticks;

  acquire(&tickslock);
    800021ee:	0000d517          	auipc	a0,0xd
    800021f2:	c9250513          	add	a0,a0,-878 # 8000ee80 <tickslock>
    800021f6:	00004097          	auipc	ra,0x4
    800021fa:	fa0080e7          	jalr	-96(ra) # 80006196 <acquire>
  xticks = ticks;
    800021fe:	00007497          	auipc	s1,0x7
    80002202:	e1a4a483          	lw	s1,-486(s1) # 80009018 <ticks>
  release(&tickslock);
    80002206:	0000d517          	auipc	a0,0xd
    8000220a:	c7a50513          	add	a0,a0,-902 # 8000ee80 <tickslock>
    8000220e:	00004097          	auipc	ra,0x4
    80002212:	03c080e7          	jalr	60(ra) # 8000624a <release>
  return xticks;
}
    80002216:	02049513          	sll	a0,s1,0x20
    8000221a:	9101                	srl	a0,a0,0x20
    8000221c:	60e2                	ld	ra,24(sp)
    8000221e:	6442                	ld	s0,16(sp)
    80002220:	64a2                	ld	s1,8(sp)
    80002222:	6105                	add	sp,sp,32
    80002224:	8082                	ret

0000000080002226 <binit>:
  struct buf head;
} bcache;

void
binit(void)
{
    80002226:	7179                	add	sp,sp,-48
    80002228:	f406                	sd	ra,40(sp)
    8000222a:	f022                	sd	s0,32(sp)
    8000222c:	ec26                	sd	s1,24(sp)
    8000222e:	e84a                	sd	s2,16(sp)
    80002230:	e44e                	sd	s3,8(sp)
    80002232:	e052                	sd	s4,0(sp)
    80002234:	1800                	add	s0,sp,48
  struct buf *b;

  initlock(&bcache.lock, "bcache");
    80002236:	00006597          	auipc	a1,0x6
    8000223a:	14a58593          	add	a1,a1,330 # 80008380 <etext+0x380>
    8000223e:	0000d517          	auipc	a0,0xd
    80002242:	c5a50513          	add	a0,a0,-934 # 8000ee98 <bcache>
    80002246:	00004097          	auipc	ra,0x4
    8000224a:	ec0080e7          	jalr	-320(ra) # 80006106 <initlock>

  // Create linked list of buffers
  bcache.head.prev = &bcache.head;
    8000224e:	00015797          	auipc	a5,0x15
    80002252:	c4a78793          	add	a5,a5,-950 # 80016e98 <bcache+0x8000>
    80002256:	00015717          	auipc	a4,0x15
    8000225a:	eaa70713          	add	a4,a4,-342 # 80017100 <bcache+0x8268>
    8000225e:	2ae7b823          	sd	a4,688(a5)
  bcache.head.next = &bcache.head;
    80002262:	2ae7bc23          	sd	a4,696(a5)
  for(b = bcache.buf; b < bcache.buf+NBUF; b++){
    80002266:	0000d497          	auipc	s1,0xd
    8000226a:	c4a48493          	add	s1,s1,-950 # 8000eeb0 <bcache+0x18>
    b->next = bcache.head.next;
    8000226e:	893e                	mv	s2,a5
    b->prev = &bcache.head;
    80002270:	89ba                	mv	s3,a4
    initsleeplock(&b->lock, "buffer");
    80002272:	00006a17          	auipc	s4,0x6
    80002276:	116a0a13          	add	s4,s4,278 # 80008388 <etext+0x388>
    b->next = bcache.head.next;
    8000227a:	2b893783          	ld	a5,696(s2)
    8000227e:	e8bc                	sd	a5,80(s1)
    b->prev = &bcache.head;
    80002280:	0534b423          	sd	s3,72(s1)
    initsleeplock(&b->lock, "buffer");
    80002284:	85d2                	mv	a1,s4
    80002286:	01048513          	add	a0,s1,16
    8000228a:	00001097          	auipc	ra,0x1
    8000228e:	4b2080e7          	jalr	1202(ra) # 8000373c <initsleeplock>
    bcache.head.next->prev = b;
    80002292:	2b893783          	ld	a5,696(s2)
    80002296:	e7a4                	sd	s1,72(a5)
    bcache.head.next = b;
    80002298:	2a993c23          	sd	s1,696(s2)
  for(b = bcache.buf; b < bcache.buf+NBUF; b++){
    8000229c:	45848493          	add	s1,s1,1112
    800022a0:	fd349de3          	bne	s1,s3,8000227a <binit+0x54>
  }
}
    800022a4:	70a2                	ld	ra,40(sp)
    800022a6:	7402                	ld	s0,32(sp)
    800022a8:	64e2                	ld	s1,24(sp)
    800022aa:	6942                	ld	s2,16(sp)
    800022ac:	69a2                	ld	s3,8(sp)
    800022ae:	6a02                	ld	s4,0(sp)
    800022b0:	6145                	add	sp,sp,48
    800022b2:	8082                	ret

00000000800022b4 <bread>:
}

// Return a locked buf with the contents of the indicated block.
struct buf*
bread(uint dev, uint blockno)
{
    800022b4:	7179                	add	sp,sp,-48
    800022b6:	f406                	sd	ra,40(sp)
    800022b8:	f022                	sd	s0,32(sp)
    800022ba:	ec26                	sd	s1,24(sp)
    800022bc:	e84a                	sd	s2,16(sp)
    800022be:	e44e                	sd	s3,8(sp)
    800022c0:	1800                	add	s0,sp,48
    800022c2:	892a                	mv	s2,a0
    800022c4:	89ae                	mv	s3,a1
  acquire(&bcache.lock);
    800022c6:	0000d517          	auipc	a0,0xd
    800022ca:	bd250513          	add	a0,a0,-1070 # 8000ee98 <bcache>
    800022ce:	00004097          	auipc	ra,0x4
    800022d2:	ec8080e7          	jalr	-312(ra) # 80006196 <acquire>
  for(b = bcache.head.next; b != &bcache.head; b = b->next){
    800022d6:	00015497          	auipc	s1,0x15
    800022da:	e7a4b483          	ld	s1,-390(s1) # 80017150 <bcache+0x82b8>
    800022de:	00015797          	auipc	a5,0x15
    800022e2:	e2278793          	add	a5,a5,-478 # 80017100 <bcache+0x8268>
    800022e6:	02f48f63          	beq	s1,a5,80002324 <bread+0x70>
    800022ea:	873e                	mv	a4,a5
    800022ec:	a021                	j	800022f4 <bread+0x40>
    800022ee:	68a4                	ld	s1,80(s1)
    800022f0:	02e48a63          	beq	s1,a4,80002324 <bread+0x70>
    if(b->dev == dev && b->blockno == blockno){
    800022f4:	449c                	lw	a5,8(s1)
    800022f6:	ff279ce3          	bne	a5,s2,800022ee <bread+0x3a>
    800022fa:	44dc                	lw	a5,12(s1)
    800022fc:	ff3799e3          	bne	a5,s3,800022ee <bread+0x3a>
      b->refcnt++;
    80002300:	40bc                	lw	a5,64(s1)
    80002302:	2785                	addw	a5,a5,1
    80002304:	c0bc                	sw	a5,64(s1)
      release(&bcache.lock);
    80002306:	0000d517          	auipc	a0,0xd
    8000230a:	b9250513          	add	a0,a0,-1134 # 8000ee98 <bcache>
    8000230e:	00004097          	auipc	ra,0x4
    80002312:	f3c080e7          	jalr	-196(ra) # 8000624a <release>
      acquiresleep(&b->lock);
    80002316:	01048513          	add	a0,s1,16
    8000231a:	00001097          	auipc	ra,0x1
    8000231e:	45c080e7          	jalr	1116(ra) # 80003776 <acquiresleep>
      return b;
    80002322:	a8b9                	j	80002380 <bread+0xcc>
  for(b = bcache.head.prev; b != &bcache.head; b = b->prev){
    80002324:	00015497          	auipc	s1,0x15
    80002328:	e244b483          	ld	s1,-476(s1) # 80017148 <bcache+0x82b0>
    8000232c:	00015797          	auipc	a5,0x15
    80002330:	dd478793          	add	a5,a5,-556 # 80017100 <bcache+0x8268>
    80002334:	00f48863          	beq	s1,a5,80002344 <bread+0x90>
    80002338:	873e                	mv	a4,a5
    if(b->refcnt == 0) {
    8000233a:	40bc                	lw	a5,64(s1)
    8000233c:	cf81                	beqz	a5,80002354 <bread+0xa0>
  for(b = bcache.head.prev; b != &bcache.head; b = b->prev){
    8000233e:	64a4                	ld	s1,72(s1)
    80002340:	fee49de3          	bne	s1,a4,8000233a <bread+0x86>
  panic("bget: no buffers");
    80002344:	00006517          	auipc	a0,0x6
    80002348:	04c50513          	add	a0,a0,76 # 80008390 <etext+0x390>
    8000234c:	00004097          	auipc	ra,0x4
    80002350:	8d0080e7          	jalr	-1840(ra) # 80005c1c <panic>
      b->dev = dev;
    80002354:	0124a423          	sw	s2,8(s1)
      b->blockno = blockno;
    80002358:	0134a623          	sw	s3,12(s1)
      b->valid = 0;
    8000235c:	0004a023          	sw	zero,0(s1)
      b->refcnt = 1;
    80002360:	4785                	li	a5,1
    80002362:	c0bc                	sw	a5,64(s1)
      release(&bcache.lock);
    80002364:	0000d517          	auipc	a0,0xd
    80002368:	b3450513          	add	a0,a0,-1228 # 8000ee98 <bcache>
    8000236c:	00004097          	auipc	ra,0x4
    80002370:	ede080e7          	jalr	-290(ra) # 8000624a <release>
      acquiresleep(&b->lock);
    80002374:	01048513          	add	a0,s1,16
    80002378:	00001097          	auipc	ra,0x1
    8000237c:	3fe080e7          	jalr	1022(ra) # 80003776 <acquiresleep>
  struct buf *b;

  b = bget(dev, blockno);
  if(!b->valid) {
    80002380:	409c                	lw	a5,0(s1)
    80002382:	cb89                	beqz	a5,80002394 <bread+0xe0>
    virtio_disk_rw(b, 0);
    b->valid = 1;
  }
  return b;
}
    80002384:	8526                	mv	a0,s1
    80002386:	70a2                	ld	ra,40(sp)
    80002388:	7402                	ld	s0,32(sp)
    8000238a:	64e2                	ld	s1,24(sp)
    8000238c:	6942                	ld	s2,16(sp)
    8000238e:	69a2                	ld	s3,8(sp)
    80002390:	6145                	add	sp,sp,48
    80002392:	8082                	ret
    virtio_disk_rw(b, 0);
    80002394:	4581                	li	a1,0
    80002396:	8526                	mv	a0,s1
    80002398:	00003097          	auipc	ra,0x3
    8000239c:	fea080e7          	jalr	-22(ra) # 80005382 <virtio_disk_rw>
    b->valid = 1;
    800023a0:	4785                	li	a5,1
    800023a2:	c09c                	sw	a5,0(s1)
  return b;
    800023a4:	b7c5                	j	80002384 <bread+0xd0>

00000000800023a6 <bwrite>:

// Write b's contents to disk.  Must be locked.
void
bwrite(struct buf *b)
{
    800023a6:	1101                	add	sp,sp,-32
    800023a8:	ec06                	sd	ra,24(sp)
    800023aa:	e822                	sd	s0,16(sp)
    800023ac:	e426                	sd	s1,8(sp)
    800023ae:	1000                	add	s0,sp,32
    800023b0:	84aa                	mv	s1,a0
  if(!holdingsleep(&b->lock))
    800023b2:	0541                	add	a0,a0,16
    800023b4:	00001097          	auipc	ra,0x1
    800023b8:	45c080e7          	jalr	1116(ra) # 80003810 <holdingsleep>
    800023bc:	cd01                	beqz	a0,800023d4 <bwrite+0x2e>
    panic("bwrite");
  virtio_disk_rw(b, 1);
    800023be:	4585                	li	a1,1
    800023c0:	8526                	mv	a0,s1
    800023c2:	00003097          	auipc	ra,0x3
    800023c6:	fc0080e7          	jalr	-64(ra) # 80005382 <virtio_disk_rw>
}
    800023ca:	60e2                	ld	ra,24(sp)
    800023cc:	6442                	ld	s0,16(sp)
    800023ce:	64a2                	ld	s1,8(sp)
    800023d0:	6105                	add	sp,sp,32
    800023d2:	8082                	ret
    panic("bwrite");
    800023d4:	00006517          	auipc	a0,0x6
    800023d8:	fd450513          	add	a0,a0,-44 # 800083a8 <etext+0x3a8>
    800023dc:	00004097          	auipc	ra,0x4
    800023e0:	840080e7          	jalr	-1984(ra) # 80005c1c <panic>

00000000800023e4 <brelse>:

// Release a locked buffer.
// Move to the head of the most-recently-used list.
void
brelse(struct buf *b)
{
    800023e4:	1101                	add	sp,sp,-32
    800023e6:	ec06                	sd	ra,24(sp)
    800023e8:	e822                	sd	s0,16(sp)
    800023ea:	e426                	sd	s1,8(sp)
    800023ec:	e04a                	sd	s2,0(sp)
    800023ee:	1000                	add	s0,sp,32
    800023f0:	84aa                	mv	s1,a0
  if(!holdingsleep(&b->lock))
    800023f2:	01050913          	add	s2,a0,16
    800023f6:	854a                	mv	a0,s2
    800023f8:	00001097          	auipc	ra,0x1
    800023fc:	418080e7          	jalr	1048(ra) # 80003810 <holdingsleep>
    80002400:	c925                	beqz	a0,80002470 <brelse+0x8c>
    panic("brelse");

  releasesleep(&b->lock);
    80002402:	854a                	mv	a0,s2
    80002404:	00001097          	auipc	ra,0x1
    80002408:	3c8080e7          	jalr	968(ra) # 800037cc <releasesleep>

  acquire(&bcache.lock);
    8000240c:	0000d517          	auipc	a0,0xd
    80002410:	a8c50513          	add	a0,a0,-1396 # 8000ee98 <bcache>
    80002414:	00004097          	auipc	ra,0x4
    80002418:	d82080e7          	jalr	-638(ra) # 80006196 <acquire>
  b->refcnt--;
    8000241c:	40bc                	lw	a5,64(s1)
    8000241e:	37fd                	addw	a5,a5,-1
    80002420:	0007871b          	sext.w	a4,a5
    80002424:	c0bc                	sw	a5,64(s1)
  if (b->refcnt == 0) {
    80002426:	e71d                	bnez	a4,80002454 <brelse+0x70>
    // no one is waiting for it.
    b->next->prev = b->prev;
    80002428:	68b8                	ld	a4,80(s1)
    8000242a:	64bc                	ld	a5,72(s1)
    8000242c:	e73c                	sd	a5,72(a4)
    b->prev->next = b->next;
    8000242e:	68b8                	ld	a4,80(s1)
    80002430:	ebb8                	sd	a4,80(a5)
    b->next = bcache.head.next;
    80002432:	00015797          	auipc	a5,0x15
    80002436:	a6678793          	add	a5,a5,-1434 # 80016e98 <bcache+0x8000>
    8000243a:	2b87b703          	ld	a4,696(a5)
    8000243e:	e8b8                	sd	a4,80(s1)
    b->prev = &bcache.head;
    80002440:	00015717          	auipc	a4,0x15
    80002444:	cc070713          	add	a4,a4,-832 # 80017100 <bcache+0x8268>
    80002448:	e4b8                	sd	a4,72(s1)
    bcache.head.next->prev = b;
    8000244a:	2b87b703          	ld	a4,696(a5)
    8000244e:	e724                	sd	s1,72(a4)
    bcache.head.next = b;
    80002450:	2a97bc23          	sd	s1,696(a5)
  }
  
  release(&bcache.lock);
    80002454:	0000d517          	auipc	a0,0xd
    80002458:	a4450513          	add	a0,a0,-1468 # 8000ee98 <bcache>
    8000245c:	00004097          	auipc	ra,0x4
    80002460:	dee080e7          	jalr	-530(ra) # 8000624a <release>
}
    80002464:	60e2                	ld	ra,24(sp)
    80002466:	6442                	ld	s0,16(sp)
    80002468:	64a2                	ld	s1,8(sp)
    8000246a:	6902                	ld	s2,0(sp)
    8000246c:	6105                	add	sp,sp,32
    8000246e:	8082                	ret
    panic("brelse");
    80002470:	00006517          	auipc	a0,0x6
    80002474:	f4050513          	add	a0,a0,-192 # 800083b0 <etext+0x3b0>
    80002478:	00003097          	auipc	ra,0x3
    8000247c:	7a4080e7          	jalr	1956(ra) # 80005c1c <panic>

0000000080002480 <bpin>:

void
bpin(struct buf *b) {
    80002480:	1101                	add	sp,sp,-32
    80002482:	ec06                	sd	ra,24(sp)
    80002484:	e822                	sd	s0,16(sp)
    80002486:	e426                	sd	s1,8(sp)
    80002488:	1000                	add	s0,sp,32
    8000248a:	84aa                	mv	s1,a0
  acquire(&bcache.lock);
    8000248c:	0000d517          	auipc	a0,0xd
    80002490:	a0c50513          	add	a0,a0,-1524 # 8000ee98 <bcache>
    80002494:	00004097          	auipc	ra,0x4
    80002498:	d02080e7          	jalr	-766(ra) # 80006196 <acquire>
  b->refcnt++;
    8000249c:	40bc                	lw	a5,64(s1)
    8000249e:	2785                	addw	a5,a5,1
    800024a0:	c0bc                	sw	a5,64(s1)
  release(&bcache.lock);
    800024a2:	0000d517          	auipc	a0,0xd
    800024a6:	9f650513          	add	a0,a0,-1546 # 8000ee98 <bcache>
    800024aa:	00004097          	auipc	ra,0x4
    800024ae:	da0080e7          	jalr	-608(ra) # 8000624a <release>
}
    800024b2:	60e2                	ld	ra,24(sp)
    800024b4:	6442                	ld	s0,16(sp)
    800024b6:	64a2                	ld	s1,8(sp)
    800024b8:	6105                	add	sp,sp,32
    800024ba:	8082                	ret

00000000800024bc <bunpin>:

void
bunpin(struct buf *b) {
    800024bc:	1101                	add	sp,sp,-32
    800024be:	ec06                	sd	ra,24(sp)
    800024c0:	e822                	sd	s0,16(sp)
    800024c2:	e426                	sd	s1,8(sp)
    800024c4:	1000                	add	s0,sp,32
    800024c6:	84aa                	mv	s1,a0
  acquire(&bcache.lock);
    800024c8:	0000d517          	auipc	a0,0xd
    800024cc:	9d050513          	add	a0,a0,-1584 # 8000ee98 <bcache>
    800024d0:	00004097          	auipc	ra,0x4
    800024d4:	cc6080e7          	jalr	-826(ra) # 80006196 <acquire>
  b->refcnt--;
    800024d8:	40bc                	lw	a5,64(s1)
    800024da:	37fd                	addw	a5,a5,-1
    800024dc:	c0bc                	sw	a5,64(s1)
  release(&bcache.lock);
    800024de:	0000d517          	auipc	a0,0xd
    800024e2:	9ba50513          	add	a0,a0,-1606 # 8000ee98 <bcache>
    800024e6:	00004097          	auipc	ra,0x4
    800024ea:	d64080e7          	jalr	-668(ra) # 8000624a <release>
}
    800024ee:	60e2                	ld	ra,24(sp)
    800024f0:	6442                	ld	s0,16(sp)
    800024f2:	64a2                	ld	s1,8(sp)
    800024f4:	6105                	add	sp,sp,32
    800024f6:	8082                	ret

00000000800024f8 <bfree>:
}

// Free a disk block.
static void
bfree(int dev, uint b)
{
    800024f8:	1101                	add	sp,sp,-32
    800024fa:	ec06                	sd	ra,24(sp)
    800024fc:	e822                	sd	s0,16(sp)
    800024fe:	e426                	sd	s1,8(sp)
    80002500:	e04a                	sd	s2,0(sp)
    80002502:	1000                	add	s0,sp,32
    80002504:	84ae                	mv	s1,a1
  struct buf *bp;
  int bi, m;

  bp = bread(dev, BBLOCK(b, sb));
    80002506:	00d5d59b          	srlw	a1,a1,0xd
    8000250a:	00015797          	auipc	a5,0x15
    8000250e:	06a7a783          	lw	a5,106(a5) # 80017574 <sb+0x1c>
    80002512:	9dbd                	addw	a1,a1,a5
    80002514:	00000097          	auipc	ra,0x0
    80002518:	da0080e7          	jalr	-608(ra) # 800022b4 <bread>
  bi = b % BPB;
  m = 1 << (bi % 8);
    8000251c:	0074f713          	and	a4,s1,7
    80002520:	4785                	li	a5,1
    80002522:	00e797bb          	sllw	a5,a5,a4
  if((bp->data[bi/8] & m) == 0)
    80002526:	14ce                	sll	s1,s1,0x33
    80002528:	90d9                	srl	s1,s1,0x36
    8000252a:	00950733          	add	a4,a0,s1
    8000252e:	05874703          	lbu	a4,88(a4)
    80002532:	00e7f6b3          	and	a3,a5,a4
    80002536:	c69d                	beqz	a3,80002564 <bfree+0x6c>
    80002538:	892a                	mv	s2,a0
    panic("freeing free block");
  bp->data[bi/8] &= ~m;
    8000253a:	94aa                	add	s1,s1,a0
    8000253c:	fff7c793          	not	a5,a5
    80002540:	8f7d                	and	a4,a4,a5
    80002542:	04e48c23          	sb	a4,88(s1)
  log_write(bp);
    80002546:	00001097          	auipc	ra,0x1
    8000254a:	112080e7          	jalr	274(ra) # 80003658 <log_write>
  brelse(bp);
    8000254e:	854a                	mv	a0,s2
    80002550:	00000097          	auipc	ra,0x0
    80002554:	e94080e7          	jalr	-364(ra) # 800023e4 <brelse>
}
    80002558:	60e2                	ld	ra,24(sp)
    8000255a:	6442                	ld	s0,16(sp)
    8000255c:	64a2                	ld	s1,8(sp)
    8000255e:	6902                	ld	s2,0(sp)
    80002560:	6105                	add	sp,sp,32
    80002562:	8082                	ret
    panic("freeing free block");
    80002564:	00006517          	auipc	a0,0x6
    80002568:	e5450513          	add	a0,a0,-428 # 800083b8 <etext+0x3b8>
    8000256c:	00003097          	auipc	ra,0x3
    80002570:	6b0080e7          	jalr	1712(ra) # 80005c1c <panic>

0000000080002574 <balloc>:
{
    80002574:	711d                	add	sp,sp,-96
    80002576:	ec86                	sd	ra,88(sp)
    80002578:	e8a2                	sd	s0,80(sp)
    8000257a:	e4a6                	sd	s1,72(sp)
    8000257c:	e0ca                	sd	s2,64(sp)
    8000257e:	fc4e                	sd	s3,56(sp)
    80002580:	f852                	sd	s4,48(sp)
    80002582:	f456                	sd	s5,40(sp)
    80002584:	f05a                	sd	s6,32(sp)
    80002586:	ec5e                	sd	s7,24(sp)
    80002588:	e862                	sd	s8,16(sp)
    8000258a:	e466                	sd	s9,8(sp)
    8000258c:	1080                	add	s0,sp,96
  for(b = 0; b < sb.size; b += BPB){
    8000258e:	00015797          	auipc	a5,0x15
    80002592:	fce7a783          	lw	a5,-50(a5) # 8001755c <sb+0x4>
    80002596:	cbc1                	beqz	a5,80002626 <balloc+0xb2>
    80002598:	8baa                	mv	s7,a0
    8000259a:	4a81                	li	s5,0
    bp = bread(dev, BBLOCK(b, sb));
    8000259c:	00015b17          	auipc	s6,0x15
    800025a0:	fbcb0b13          	add	s6,s6,-68 # 80017558 <sb>
    for(bi = 0; bi < BPB && b + bi < sb.size; bi++){
    800025a4:	4c01                	li	s8,0
      m = 1 << (bi % 8);
    800025a6:	4985                	li	s3,1
    for(bi = 0; bi < BPB && b + bi < sb.size; bi++){
    800025a8:	6a09                	lui	s4,0x2
  for(b = 0; b < sb.size; b += BPB){
    800025aa:	6c89                	lui	s9,0x2
    800025ac:	a831                	j	800025c8 <balloc+0x54>
    brelse(bp);
    800025ae:	854a                	mv	a0,s2
    800025b0:	00000097          	auipc	ra,0x0
    800025b4:	e34080e7          	jalr	-460(ra) # 800023e4 <brelse>
  for(b = 0; b < sb.size; b += BPB){
    800025b8:	015c87bb          	addw	a5,s9,s5
    800025bc:	00078a9b          	sext.w	s5,a5
    800025c0:	004b2703          	lw	a4,4(s6)
    800025c4:	06eaf163          	bgeu	s5,a4,80002626 <balloc+0xb2>
    bp = bread(dev, BBLOCK(b, sb));
    800025c8:	41fad79b          	sraw	a5,s5,0x1f
    800025cc:	0137d79b          	srlw	a5,a5,0x13
    800025d0:	015787bb          	addw	a5,a5,s5
    800025d4:	40d7d79b          	sraw	a5,a5,0xd
    800025d8:	01cb2583          	lw	a1,28(s6)
    800025dc:	9dbd                	addw	a1,a1,a5
    800025de:	855e                	mv	a0,s7
    800025e0:	00000097          	auipc	ra,0x0
    800025e4:	cd4080e7          	jalr	-812(ra) # 800022b4 <bread>
    800025e8:	892a                	mv	s2,a0
    for(bi = 0; bi < BPB && b + bi < sb.size; bi++){
    800025ea:	004b2503          	lw	a0,4(s6)
    800025ee:	000a849b          	sext.w	s1,s5
    800025f2:	8762                	mv	a4,s8
    800025f4:	faa4fde3          	bgeu	s1,a0,800025ae <balloc+0x3a>
      m = 1 << (bi % 8);
    800025f8:	00777693          	and	a3,a4,7
    800025fc:	00d996bb          	sllw	a3,s3,a3
      if((bp->data[bi/8] & m) == 0){  // Is block free?
    80002600:	41f7579b          	sraw	a5,a4,0x1f
    80002604:	01d7d79b          	srlw	a5,a5,0x1d
    80002608:	9fb9                	addw	a5,a5,a4
    8000260a:	4037d79b          	sraw	a5,a5,0x3
    8000260e:	00f90633          	add	a2,s2,a5
    80002612:	05864603          	lbu	a2,88(a2)
    80002616:	00c6f5b3          	and	a1,a3,a2
    8000261a:	cd91                	beqz	a1,80002636 <balloc+0xc2>
    for(bi = 0; bi < BPB && b + bi < sb.size; bi++){
    8000261c:	2705                	addw	a4,a4,1
    8000261e:	2485                	addw	s1,s1,1
    80002620:	fd471ae3          	bne	a4,s4,800025f4 <balloc+0x80>
    80002624:	b769                	j	800025ae <balloc+0x3a>
  panic("balloc: out of blocks");
    80002626:	00006517          	auipc	a0,0x6
    8000262a:	daa50513          	add	a0,a0,-598 # 800083d0 <etext+0x3d0>
    8000262e:	00003097          	auipc	ra,0x3
    80002632:	5ee080e7          	jalr	1518(ra) # 80005c1c <panic>
        bp->data[bi/8] |= m;  // Mark block in use.
    80002636:	97ca                	add	a5,a5,s2
    80002638:	8e55                	or	a2,a2,a3
    8000263a:	04c78c23          	sb	a2,88(a5)
        log_write(bp);
    8000263e:	854a                	mv	a0,s2
    80002640:	00001097          	auipc	ra,0x1
    80002644:	018080e7          	jalr	24(ra) # 80003658 <log_write>
        brelse(bp);
    80002648:	854a                	mv	a0,s2
    8000264a:	00000097          	auipc	ra,0x0
    8000264e:	d9a080e7          	jalr	-614(ra) # 800023e4 <brelse>
  bp = bread(dev, bno);
    80002652:	85a6                	mv	a1,s1
    80002654:	855e                	mv	a0,s7
    80002656:	00000097          	auipc	ra,0x0
    8000265a:	c5e080e7          	jalr	-930(ra) # 800022b4 <bread>
    8000265e:	892a                	mv	s2,a0
  memset(bp->data, 0, BSIZE);
    80002660:	40000613          	li	a2,1024
    80002664:	4581                	li	a1,0
    80002666:	05850513          	add	a0,a0,88
    8000266a:	ffffe097          	auipc	ra,0xffffe
    8000266e:	b10080e7          	jalr	-1264(ra) # 8000017a <memset>
  log_write(bp);
    80002672:	854a                	mv	a0,s2
    80002674:	00001097          	auipc	ra,0x1
    80002678:	fe4080e7          	jalr	-28(ra) # 80003658 <log_write>
  brelse(bp);
    8000267c:	854a                	mv	a0,s2
    8000267e:	00000097          	auipc	ra,0x0
    80002682:	d66080e7          	jalr	-666(ra) # 800023e4 <brelse>
}
    80002686:	8526                	mv	a0,s1
    80002688:	60e6                	ld	ra,88(sp)
    8000268a:	6446                	ld	s0,80(sp)
    8000268c:	64a6                	ld	s1,72(sp)
    8000268e:	6906                	ld	s2,64(sp)
    80002690:	79e2                	ld	s3,56(sp)
    80002692:	7a42                	ld	s4,48(sp)
    80002694:	7aa2                	ld	s5,40(sp)
    80002696:	7b02                	ld	s6,32(sp)
    80002698:	6be2                	ld	s7,24(sp)
    8000269a:	6c42                	ld	s8,16(sp)
    8000269c:	6ca2                	ld	s9,8(sp)
    8000269e:	6125                	add	sp,sp,96
    800026a0:	8082                	ret

00000000800026a2 <bmap>:

// Return the disk block address of the nth block in inode ip.
// If there is no such block, bmap allocates one.
static uint
bmap(struct inode *ip, uint bn)
{
    800026a2:	7179                	add	sp,sp,-48
    800026a4:	f406                	sd	ra,40(sp)
    800026a6:	f022                	sd	s0,32(sp)
    800026a8:	ec26                	sd	s1,24(sp)
    800026aa:	e84a                	sd	s2,16(sp)
    800026ac:	e44e                	sd	s3,8(sp)
    800026ae:	1800                	add	s0,sp,48
    800026b0:	892a                	mv	s2,a0
  uint addr, *a;
  struct buf *bp;

  if(bn < NDIRECT){
    800026b2:	47ad                	li	a5,11
    800026b4:	04b7ff63          	bgeu	a5,a1,80002712 <bmap+0x70>
    800026b8:	e052                	sd	s4,0(sp)
    if((addr = ip->addrs[bn]) == 0)
      ip->addrs[bn] = addr = balloc(ip->dev);
    return addr;
  }
  bn -= NDIRECT;
    800026ba:	ff45849b          	addw	s1,a1,-12
    800026be:	0004871b          	sext.w	a4,s1

  if(bn < NINDIRECT){
    800026c2:	0ff00793          	li	a5,255
    800026c6:	0ae7e463          	bltu	a5,a4,8000276e <bmap+0xcc>
    // Load indirect block, allocating if necessary.
    if((addr = ip->addrs[NDIRECT]) == 0)
    800026ca:	08052583          	lw	a1,128(a0)
    800026ce:	c5b5                	beqz	a1,8000273a <bmap+0x98>
      ip->addrs[NDIRECT] = addr = balloc(ip->dev);
    bp = bread(ip->dev, addr);
    800026d0:	00092503          	lw	a0,0(s2)
    800026d4:	00000097          	auipc	ra,0x0
    800026d8:	be0080e7          	jalr	-1056(ra) # 800022b4 <bread>
    800026dc:	8a2a                	mv	s4,a0
    a = (uint*)bp->data;
    800026de:	05850793          	add	a5,a0,88
    if((addr = a[bn]) == 0){
    800026e2:	02049713          	sll	a4,s1,0x20
    800026e6:	01e75593          	srl	a1,a4,0x1e
    800026ea:	00b784b3          	add	s1,a5,a1
    800026ee:	0004a983          	lw	s3,0(s1)
    800026f2:	04098e63          	beqz	s3,8000274e <bmap+0xac>
      a[bn] = addr = balloc(ip->dev);
      log_write(bp);
    }
    brelse(bp);
    800026f6:	8552                	mv	a0,s4
    800026f8:	00000097          	auipc	ra,0x0
    800026fc:	cec080e7          	jalr	-788(ra) # 800023e4 <brelse>
    return addr;
    80002700:	6a02                	ld	s4,0(sp)
  }

  panic("bmap: out of range");
}
    80002702:	854e                	mv	a0,s3
    80002704:	70a2                	ld	ra,40(sp)
    80002706:	7402                	ld	s0,32(sp)
    80002708:	64e2                	ld	s1,24(sp)
    8000270a:	6942                	ld	s2,16(sp)
    8000270c:	69a2                	ld	s3,8(sp)
    8000270e:	6145                	add	sp,sp,48
    80002710:	8082                	ret
    if((addr = ip->addrs[bn]) == 0)
    80002712:	02059793          	sll	a5,a1,0x20
    80002716:	01e7d593          	srl	a1,a5,0x1e
    8000271a:	00b504b3          	add	s1,a0,a1
    8000271e:	0504a983          	lw	s3,80(s1)
    80002722:	fe0990e3          	bnez	s3,80002702 <bmap+0x60>
      ip->addrs[bn] = addr = balloc(ip->dev);
    80002726:	4108                	lw	a0,0(a0)
    80002728:	00000097          	auipc	ra,0x0
    8000272c:	e4c080e7          	jalr	-436(ra) # 80002574 <balloc>
    80002730:	0005099b          	sext.w	s3,a0
    80002734:	0534a823          	sw	s3,80(s1)
    80002738:	b7e9                	j	80002702 <bmap+0x60>
      ip->addrs[NDIRECT] = addr = balloc(ip->dev);
    8000273a:	4108                	lw	a0,0(a0)
    8000273c:	00000097          	auipc	ra,0x0
    80002740:	e38080e7          	jalr	-456(ra) # 80002574 <balloc>
    80002744:	0005059b          	sext.w	a1,a0
    80002748:	08b92023          	sw	a1,128(s2)
    8000274c:	b751                	j	800026d0 <bmap+0x2e>
      a[bn] = addr = balloc(ip->dev);
    8000274e:	00092503          	lw	a0,0(s2)
    80002752:	00000097          	auipc	ra,0x0
    80002756:	e22080e7          	jalr	-478(ra) # 80002574 <balloc>
    8000275a:	0005099b          	sext.w	s3,a0
    8000275e:	0134a023          	sw	s3,0(s1)
      log_write(bp);
    80002762:	8552                	mv	a0,s4
    80002764:	00001097          	auipc	ra,0x1
    80002768:	ef4080e7          	jalr	-268(ra) # 80003658 <log_write>
    8000276c:	b769                	j	800026f6 <bmap+0x54>
  panic("bmap: out of range");
    8000276e:	00006517          	auipc	a0,0x6
    80002772:	c7a50513          	add	a0,a0,-902 # 800083e8 <etext+0x3e8>
    80002776:	00003097          	auipc	ra,0x3
    8000277a:	4a6080e7          	jalr	1190(ra) # 80005c1c <panic>

000000008000277e <iget>:
{
    8000277e:	7179                	add	sp,sp,-48
    80002780:	f406                	sd	ra,40(sp)
    80002782:	f022                	sd	s0,32(sp)
    80002784:	ec26                	sd	s1,24(sp)
    80002786:	e84a                	sd	s2,16(sp)
    80002788:	e44e                	sd	s3,8(sp)
    8000278a:	e052                	sd	s4,0(sp)
    8000278c:	1800                	add	s0,sp,48
    8000278e:	89aa                	mv	s3,a0
    80002790:	8a2e                	mv	s4,a1
  acquire(&itable.lock);
    80002792:	00015517          	auipc	a0,0x15
    80002796:	de650513          	add	a0,a0,-538 # 80017578 <itable>
    8000279a:	00004097          	auipc	ra,0x4
    8000279e:	9fc080e7          	jalr	-1540(ra) # 80006196 <acquire>
  empty = 0;
    800027a2:	4901                	li	s2,0
  for(ip = &itable.inode[0]; ip < &itable.inode[NINODE]; ip++){
    800027a4:	00015497          	auipc	s1,0x15
    800027a8:	dec48493          	add	s1,s1,-532 # 80017590 <itable+0x18>
    800027ac:	00017697          	auipc	a3,0x17
    800027b0:	87468693          	add	a3,a3,-1932 # 80019020 <log>
    800027b4:	a039                	j	800027c2 <iget+0x44>
    if(empty == 0 && ip->ref == 0)    // Remember empty slot.
    800027b6:	02090b63          	beqz	s2,800027ec <iget+0x6e>
  for(ip = &itable.inode[0]; ip < &itable.inode[NINODE]; ip++){
    800027ba:	08848493          	add	s1,s1,136
    800027be:	02d48a63          	beq	s1,a3,800027f2 <iget+0x74>
    if(ip->ref > 0 && ip->dev == dev && ip->inum == inum){
    800027c2:	449c                	lw	a5,8(s1)
    800027c4:	fef059e3          	blez	a5,800027b6 <iget+0x38>
    800027c8:	4098                	lw	a4,0(s1)
    800027ca:	ff3716e3          	bne	a4,s3,800027b6 <iget+0x38>
    800027ce:	40d8                	lw	a4,4(s1)
    800027d0:	ff4713e3          	bne	a4,s4,800027b6 <iget+0x38>
      ip->ref++;
    800027d4:	2785                	addw	a5,a5,1
    800027d6:	c49c                	sw	a5,8(s1)
      release(&itable.lock);
    800027d8:	00015517          	auipc	a0,0x15
    800027dc:	da050513          	add	a0,a0,-608 # 80017578 <itable>
    800027e0:	00004097          	auipc	ra,0x4
    800027e4:	a6a080e7          	jalr	-1430(ra) # 8000624a <release>
      return ip;
    800027e8:	8926                	mv	s2,s1
    800027ea:	a03d                	j	80002818 <iget+0x9a>
    if(empty == 0 && ip->ref == 0)    // Remember empty slot.
    800027ec:	f7f9                	bnez	a5,800027ba <iget+0x3c>
      empty = ip;
    800027ee:	8926                	mv	s2,s1
    800027f0:	b7e9                	j	800027ba <iget+0x3c>
  if(empty == 0)
    800027f2:	02090c63          	beqz	s2,8000282a <iget+0xac>
  ip->dev = dev;
    800027f6:	01392023          	sw	s3,0(s2)
  ip->inum = inum;
    800027fa:	01492223          	sw	s4,4(s2)
  ip->ref = 1;
    800027fe:	4785                	li	a5,1
    80002800:	00f92423          	sw	a5,8(s2)
  ip->valid = 0;
    80002804:	04092023          	sw	zero,64(s2)
  release(&itable.lock);
    80002808:	00015517          	auipc	a0,0x15
    8000280c:	d7050513          	add	a0,a0,-656 # 80017578 <itable>
    80002810:	00004097          	auipc	ra,0x4
    80002814:	a3a080e7          	jalr	-1478(ra) # 8000624a <release>
}
    80002818:	854a                	mv	a0,s2
    8000281a:	70a2                	ld	ra,40(sp)
    8000281c:	7402                	ld	s0,32(sp)
    8000281e:	64e2                	ld	s1,24(sp)
    80002820:	6942                	ld	s2,16(sp)
    80002822:	69a2                	ld	s3,8(sp)
    80002824:	6a02                	ld	s4,0(sp)
    80002826:	6145                	add	sp,sp,48
    80002828:	8082                	ret
    panic("iget: no inodes");
    8000282a:	00006517          	auipc	a0,0x6
    8000282e:	bd650513          	add	a0,a0,-1066 # 80008400 <etext+0x400>
    80002832:	00003097          	auipc	ra,0x3
    80002836:	3ea080e7          	jalr	1002(ra) # 80005c1c <panic>

000000008000283a <fsinit>:
fsinit(int dev) {
    8000283a:	7179                	add	sp,sp,-48
    8000283c:	f406                	sd	ra,40(sp)
    8000283e:	f022                	sd	s0,32(sp)
    80002840:	ec26                	sd	s1,24(sp)
    80002842:	e84a                	sd	s2,16(sp)
    80002844:	e44e                	sd	s3,8(sp)
    80002846:	1800                	add	s0,sp,48
    80002848:	892a                	mv	s2,a0
  bp = bread(dev, 1);
    8000284a:	4585                	li	a1,1
    8000284c:	00000097          	auipc	ra,0x0
    80002850:	a68080e7          	jalr	-1432(ra) # 800022b4 <bread>
    80002854:	84aa                	mv	s1,a0
  memmove(sb, bp->data, sizeof(*sb));
    80002856:	00015997          	auipc	s3,0x15
    8000285a:	d0298993          	add	s3,s3,-766 # 80017558 <sb>
    8000285e:	02000613          	li	a2,32
    80002862:	05850593          	add	a1,a0,88
    80002866:	854e                	mv	a0,s3
    80002868:	ffffe097          	auipc	ra,0xffffe
    8000286c:	96e080e7          	jalr	-1682(ra) # 800001d6 <memmove>
  brelse(bp);
    80002870:	8526                	mv	a0,s1
    80002872:	00000097          	auipc	ra,0x0
    80002876:	b72080e7          	jalr	-1166(ra) # 800023e4 <brelse>
  if(sb.magic != FSMAGIC)
    8000287a:	0009a703          	lw	a4,0(s3)
    8000287e:	102037b7          	lui	a5,0x10203
    80002882:	04078793          	add	a5,a5,64 # 10203040 <_entry-0x6fdfcfc0>
    80002886:	02f71263          	bne	a4,a5,800028aa <fsinit+0x70>
  initlog(dev, &sb);
    8000288a:	00015597          	auipc	a1,0x15
    8000288e:	cce58593          	add	a1,a1,-818 # 80017558 <sb>
    80002892:	854a                	mv	a0,s2
    80002894:	00001097          	auipc	ra,0x1
    80002898:	b54080e7          	jalr	-1196(ra) # 800033e8 <initlog>
}
    8000289c:	70a2                	ld	ra,40(sp)
    8000289e:	7402                	ld	s0,32(sp)
    800028a0:	64e2                	ld	s1,24(sp)
    800028a2:	6942                	ld	s2,16(sp)
    800028a4:	69a2                	ld	s3,8(sp)
    800028a6:	6145                	add	sp,sp,48
    800028a8:	8082                	ret
    panic("invalid file system");
    800028aa:	00006517          	auipc	a0,0x6
    800028ae:	b6650513          	add	a0,a0,-1178 # 80008410 <etext+0x410>
    800028b2:	00003097          	auipc	ra,0x3
    800028b6:	36a080e7          	jalr	874(ra) # 80005c1c <panic>

00000000800028ba <iinit>:
{
    800028ba:	7179                	add	sp,sp,-48
    800028bc:	f406                	sd	ra,40(sp)
    800028be:	f022                	sd	s0,32(sp)
    800028c0:	ec26                	sd	s1,24(sp)
    800028c2:	e84a                	sd	s2,16(sp)
    800028c4:	e44e                	sd	s3,8(sp)
    800028c6:	1800                	add	s0,sp,48
  initlock(&itable.lock, "itable");
    800028c8:	00006597          	auipc	a1,0x6
    800028cc:	b6058593          	add	a1,a1,-1184 # 80008428 <etext+0x428>
    800028d0:	00015517          	auipc	a0,0x15
    800028d4:	ca850513          	add	a0,a0,-856 # 80017578 <itable>
    800028d8:	00004097          	auipc	ra,0x4
    800028dc:	82e080e7          	jalr	-2002(ra) # 80006106 <initlock>
  for(i = 0; i < NINODE; i++) {
    800028e0:	00015497          	auipc	s1,0x15
    800028e4:	cc048493          	add	s1,s1,-832 # 800175a0 <itable+0x28>
    800028e8:	00016997          	auipc	s3,0x16
    800028ec:	74898993          	add	s3,s3,1864 # 80019030 <log+0x10>
    initsleeplock(&itable.inode[i].lock, "inode");
    800028f0:	00006917          	auipc	s2,0x6
    800028f4:	b4090913          	add	s2,s2,-1216 # 80008430 <etext+0x430>
    800028f8:	85ca                	mv	a1,s2
    800028fa:	8526                	mv	a0,s1
    800028fc:	00001097          	auipc	ra,0x1
    80002900:	e40080e7          	jalr	-448(ra) # 8000373c <initsleeplock>
  for(i = 0; i < NINODE; i++) {
    80002904:	08848493          	add	s1,s1,136
    80002908:	ff3498e3          	bne	s1,s3,800028f8 <iinit+0x3e>
}
    8000290c:	70a2                	ld	ra,40(sp)
    8000290e:	7402                	ld	s0,32(sp)
    80002910:	64e2                	ld	s1,24(sp)
    80002912:	6942                	ld	s2,16(sp)
    80002914:	69a2                	ld	s3,8(sp)
    80002916:	6145                	add	sp,sp,48
    80002918:	8082                	ret

000000008000291a <ialloc>:
{
    8000291a:	7139                	add	sp,sp,-64
    8000291c:	fc06                	sd	ra,56(sp)
    8000291e:	f822                	sd	s0,48(sp)
    80002920:	f426                	sd	s1,40(sp)
    80002922:	f04a                	sd	s2,32(sp)
    80002924:	ec4e                	sd	s3,24(sp)
    80002926:	e852                	sd	s4,16(sp)
    80002928:	e456                	sd	s5,8(sp)
    8000292a:	e05a                	sd	s6,0(sp)
    8000292c:	0080                	add	s0,sp,64
  for(inum = 1; inum < sb.ninodes; inum++){
    8000292e:	00015717          	auipc	a4,0x15
    80002932:	c3672703          	lw	a4,-970(a4) # 80017564 <sb+0xc>
    80002936:	4785                	li	a5,1
    80002938:	04e7f863          	bgeu	a5,a4,80002988 <ialloc+0x6e>
    8000293c:	8aaa                	mv	s5,a0
    8000293e:	8b2e                	mv	s6,a1
    80002940:	4905                	li	s2,1
    bp = bread(dev, IBLOCK(inum, sb));
    80002942:	00015a17          	auipc	s4,0x15
    80002946:	c16a0a13          	add	s4,s4,-1002 # 80017558 <sb>
    8000294a:	00495593          	srl	a1,s2,0x4
    8000294e:	018a2783          	lw	a5,24(s4)
    80002952:	9dbd                	addw	a1,a1,a5
    80002954:	8556                	mv	a0,s5
    80002956:	00000097          	auipc	ra,0x0
    8000295a:	95e080e7          	jalr	-1698(ra) # 800022b4 <bread>
    8000295e:	84aa                	mv	s1,a0
    dip = (struct dinode*)bp->data + inum%IPB;
    80002960:	05850993          	add	s3,a0,88
    80002964:	00f97793          	and	a5,s2,15
    80002968:	079a                	sll	a5,a5,0x6
    8000296a:	99be                	add	s3,s3,a5
    if(dip->type == 0){  // a free inode
    8000296c:	00099783          	lh	a5,0(s3)
    80002970:	c785                	beqz	a5,80002998 <ialloc+0x7e>
    brelse(bp);
    80002972:	00000097          	auipc	ra,0x0
    80002976:	a72080e7          	jalr	-1422(ra) # 800023e4 <brelse>
  for(inum = 1; inum < sb.ninodes; inum++){
    8000297a:	0905                	add	s2,s2,1
    8000297c:	00ca2703          	lw	a4,12(s4)
    80002980:	0009079b          	sext.w	a5,s2
    80002984:	fce7e3e3          	bltu	a5,a4,8000294a <ialloc+0x30>
  panic("ialloc: no inodes");
    80002988:	00006517          	auipc	a0,0x6
    8000298c:	ab050513          	add	a0,a0,-1360 # 80008438 <etext+0x438>
    80002990:	00003097          	auipc	ra,0x3
    80002994:	28c080e7          	jalr	652(ra) # 80005c1c <panic>
      memset(dip, 0, sizeof(*dip));
    80002998:	04000613          	li	a2,64
    8000299c:	4581                	li	a1,0
    8000299e:	854e                	mv	a0,s3
    800029a0:	ffffd097          	auipc	ra,0xffffd
    800029a4:	7da080e7          	jalr	2010(ra) # 8000017a <memset>
      dip->type = type;
    800029a8:	01699023          	sh	s6,0(s3)
      log_write(bp);   // mark it allocated on the disk
    800029ac:	8526                	mv	a0,s1
    800029ae:	00001097          	auipc	ra,0x1
    800029b2:	caa080e7          	jalr	-854(ra) # 80003658 <log_write>
      brelse(bp);
    800029b6:	8526                	mv	a0,s1
    800029b8:	00000097          	auipc	ra,0x0
    800029bc:	a2c080e7          	jalr	-1492(ra) # 800023e4 <brelse>
      return iget(dev, inum);
    800029c0:	0009059b          	sext.w	a1,s2
    800029c4:	8556                	mv	a0,s5
    800029c6:	00000097          	auipc	ra,0x0
    800029ca:	db8080e7          	jalr	-584(ra) # 8000277e <iget>
}
    800029ce:	70e2                	ld	ra,56(sp)
    800029d0:	7442                	ld	s0,48(sp)
    800029d2:	74a2                	ld	s1,40(sp)
    800029d4:	7902                	ld	s2,32(sp)
    800029d6:	69e2                	ld	s3,24(sp)
    800029d8:	6a42                	ld	s4,16(sp)
    800029da:	6aa2                	ld	s5,8(sp)
    800029dc:	6b02                	ld	s6,0(sp)
    800029de:	6121                	add	sp,sp,64
    800029e0:	8082                	ret

00000000800029e2 <iupdate>:
{
    800029e2:	1101                	add	sp,sp,-32
    800029e4:	ec06                	sd	ra,24(sp)
    800029e6:	e822                	sd	s0,16(sp)
    800029e8:	e426                	sd	s1,8(sp)
    800029ea:	e04a                	sd	s2,0(sp)
    800029ec:	1000                	add	s0,sp,32
    800029ee:	84aa                	mv	s1,a0
  bp = bread(ip->dev, IBLOCK(ip->inum, sb));
    800029f0:	415c                	lw	a5,4(a0)
    800029f2:	0047d79b          	srlw	a5,a5,0x4
    800029f6:	00015597          	auipc	a1,0x15
    800029fa:	b7a5a583          	lw	a1,-1158(a1) # 80017570 <sb+0x18>
    800029fe:	9dbd                	addw	a1,a1,a5
    80002a00:	4108                	lw	a0,0(a0)
    80002a02:	00000097          	auipc	ra,0x0
    80002a06:	8b2080e7          	jalr	-1870(ra) # 800022b4 <bread>
    80002a0a:	892a                	mv	s2,a0
  dip = (struct dinode*)bp->data + ip->inum%IPB;
    80002a0c:	05850793          	add	a5,a0,88
    80002a10:	40d8                	lw	a4,4(s1)
    80002a12:	8b3d                	and	a4,a4,15
    80002a14:	071a                	sll	a4,a4,0x6
    80002a16:	97ba                	add	a5,a5,a4
  dip->type = ip->type;
    80002a18:	04449703          	lh	a4,68(s1)
    80002a1c:	00e79023          	sh	a4,0(a5)
  dip->major = ip->major;
    80002a20:	04649703          	lh	a4,70(s1)
    80002a24:	00e79123          	sh	a4,2(a5)
  dip->minor = ip->minor;
    80002a28:	04849703          	lh	a4,72(s1)
    80002a2c:	00e79223          	sh	a4,4(a5)
  dip->nlink = ip->nlink;
    80002a30:	04a49703          	lh	a4,74(s1)
    80002a34:	00e79323          	sh	a4,6(a5)
  dip->size = ip->size;
    80002a38:	44f8                	lw	a4,76(s1)
    80002a3a:	c798                	sw	a4,8(a5)
  memmove(dip->addrs, ip->addrs, sizeof(ip->addrs));
    80002a3c:	03400613          	li	a2,52
    80002a40:	05048593          	add	a1,s1,80
    80002a44:	00c78513          	add	a0,a5,12
    80002a48:	ffffd097          	auipc	ra,0xffffd
    80002a4c:	78e080e7          	jalr	1934(ra) # 800001d6 <memmove>
  log_write(bp);
    80002a50:	854a                	mv	a0,s2
    80002a52:	00001097          	auipc	ra,0x1
    80002a56:	c06080e7          	jalr	-1018(ra) # 80003658 <log_write>
  brelse(bp);
    80002a5a:	854a                	mv	a0,s2
    80002a5c:	00000097          	auipc	ra,0x0
    80002a60:	988080e7          	jalr	-1656(ra) # 800023e4 <brelse>
}
    80002a64:	60e2                	ld	ra,24(sp)
    80002a66:	6442                	ld	s0,16(sp)
    80002a68:	64a2                	ld	s1,8(sp)
    80002a6a:	6902                	ld	s2,0(sp)
    80002a6c:	6105                	add	sp,sp,32
    80002a6e:	8082                	ret

0000000080002a70 <idup>:
{
    80002a70:	1101                	add	sp,sp,-32
    80002a72:	ec06                	sd	ra,24(sp)
    80002a74:	e822                	sd	s0,16(sp)
    80002a76:	e426                	sd	s1,8(sp)
    80002a78:	1000                	add	s0,sp,32
    80002a7a:	84aa                	mv	s1,a0
  acquire(&itable.lock);
    80002a7c:	00015517          	auipc	a0,0x15
    80002a80:	afc50513          	add	a0,a0,-1284 # 80017578 <itable>
    80002a84:	00003097          	auipc	ra,0x3
    80002a88:	712080e7          	jalr	1810(ra) # 80006196 <acquire>
  ip->ref++;
    80002a8c:	449c                	lw	a5,8(s1)
    80002a8e:	2785                	addw	a5,a5,1
    80002a90:	c49c                	sw	a5,8(s1)
  release(&itable.lock);
    80002a92:	00015517          	auipc	a0,0x15
    80002a96:	ae650513          	add	a0,a0,-1306 # 80017578 <itable>
    80002a9a:	00003097          	auipc	ra,0x3
    80002a9e:	7b0080e7          	jalr	1968(ra) # 8000624a <release>
}
    80002aa2:	8526                	mv	a0,s1
    80002aa4:	60e2                	ld	ra,24(sp)
    80002aa6:	6442                	ld	s0,16(sp)
    80002aa8:	64a2                	ld	s1,8(sp)
    80002aaa:	6105                	add	sp,sp,32
    80002aac:	8082                	ret

0000000080002aae <ilock>:
{
    80002aae:	1101                	add	sp,sp,-32
    80002ab0:	ec06                	sd	ra,24(sp)
    80002ab2:	e822                	sd	s0,16(sp)
    80002ab4:	e426                	sd	s1,8(sp)
    80002ab6:	1000                	add	s0,sp,32
  if(ip == 0 || ip->ref < 1)
    80002ab8:	c10d                	beqz	a0,80002ada <ilock+0x2c>
    80002aba:	84aa                	mv	s1,a0
    80002abc:	451c                	lw	a5,8(a0)
    80002abe:	00f05e63          	blez	a5,80002ada <ilock+0x2c>
  acquiresleep(&ip->lock);
    80002ac2:	0541                	add	a0,a0,16
    80002ac4:	00001097          	auipc	ra,0x1
    80002ac8:	cb2080e7          	jalr	-846(ra) # 80003776 <acquiresleep>
  if(ip->valid == 0){
    80002acc:	40bc                	lw	a5,64(s1)
    80002ace:	cf99                	beqz	a5,80002aec <ilock+0x3e>
}
    80002ad0:	60e2                	ld	ra,24(sp)
    80002ad2:	6442                	ld	s0,16(sp)
    80002ad4:	64a2                	ld	s1,8(sp)
    80002ad6:	6105                	add	sp,sp,32
    80002ad8:	8082                	ret
    80002ada:	e04a                	sd	s2,0(sp)
    panic("ilock");
    80002adc:	00006517          	auipc	a0,0x6
    80002ae0:	97450513          	add	a0,a0,-1676 # 80008450 <etext+0x450>
    80002ae4:	00003097          	auipc	ra,0x3
    80002ae8:	138080e7          	jalr	312(ra) # 80005c1c <panic>
    80002aec:	e04a                	sd	s2,0(sp)
    bp = bread(ip->dev, IBLOCK(ip->inum, sb));
    80002aee:	40dc                	lw	a5,4(s1)
    80002af0:	0047d79b          	srlw	a5,a5,0x4
    80002af4:	00015597          	auipc	a1,0x15
    80002af8:	a7c5a583          	lw	a1,-1412(a1) # 80017570 <sb+0x18>
    80002afc:	9dbd                	addw	a1,a1,a5
    80002afe:	4088                	lw	a0,0(s1)
    80002b00:	fffff097          	auipc	ra,0xfffff
    80002b04:	7b4080e7          	jalr	1972(ra) # 800022b4 <bread>
    80002b08:	892a                	mv	s2,a0
    dip = (struct dinode*)bp->data + ip->inum%IPB;
    80002b0a:	05850593          	add	a1,a0,88
    80002b0e:	40dc                	lw	a5,4(s1)
    80002b10:	8bbd                	and	a5,a5,15
    80002b12:	079a                	sll	a5,a5,0x6
    80002b14:	95be                	add	a1,a1,a5
    ip->type = dip->type;
    80002b16:	00059783          	lh	a5,0(a1)
    80002b1a:	04f49223          	sh	a5,68(s1)
    ip->major = dip->major;
    80002b1e:	00259783          	lh	a5,2(a1)
    80002b22:	04f49323          	sh	a5,70(s1)
    ip->minor = dip->minor;
    80002b26:	00459783          	lh	a5,4(a1)
    80002b2a:	04f49423          	sh	a5,72(s1)
    ip->nlink = dip->nlink;
    80002b2e:	00659783          	lh	a5,6(a1)
    80002b32:	04f49523          	sh	a5,74(s1)
    ip->size = dip->size;
    80002b36:	459c                	lw	a5,8(a1)
    80002b38:	c4fc                	sw	a5,76(s1)
    memmove(ip->addrs, dip->addrs, sizeof(ip->addrs));
    80002b3a:	03400613          	li	a2,52
    80002b3e:	05b1                	add	a1,a1,12
    80002b40:	05048513          	add	a0,s1,80
    80002b44:	ffffd097          	auipc	ra,0xffffd
    80002b48:	692080e7          	jalr	1682(ra) # 800001d6 <memmove>
    brelse(bp);
    80002b4c:	854a                	mv	a0,s2
    80002b4e:	00000097          	auipc	ra,0x0
    80002b52:	896080e7          	jalr	-1898(ra) # 800023e4 <brelse>
    ip->valid = 1;
    80002b56:	4785                	li	a5,1
    80002b58:	c0bc                	sw	a5,64(s1)
    if(ip->type == 0)
    80002b5a:	04449783          	lh	a5,68(s1)
    80002b5e:	c399                	beqz	a5,80002b64 <ilock+0xb6>
    80002b60:	6902                	ld	s2,0(sp)
    80002b62:	b7bd                	j	80002ad0 <ilock+0x22>
      panic("ilock: no type");
    80002b64:	00006517          	auipc	a0,0x6
    80002b68:	8f450513          	add	a0,a0,-1804 # 80008458 <etext+0x458>
    80002b6c:	00003097          	auipc	ra,0x3
    80002b70:	0b0080e7          	jalr	176(ra) # 80005c1c <panic>

0000000080002b74 <iunlock>:
{
    80002b74:	1101                	add	sp,sp,-32
    80002b76:	ec06                	sd	ra,24(sp)
    80002b78:	e822                	sd	s0,16(sp)
    80002b7a:	e426                	sd	s1,8(sp)
    80002b7c:	e04a                	sd	s2,0(sp)
    80002b7e:	1000                	add	s0,sp,32
  if(ip == 0 || !holdingsleep(&ip->lock) || ip->ref < 1)
    80002b80:	c905                	beqz	a0,80002bb0 <iunlock+0x3c>
    80002b82:	84aa                	mv	s1,a0
    80002b84:	01050913          	add	s2,a0,16
    80002b88:	854a                	mv	a0,s2
    80002b8a:	00001097          	auipc	ra,0x1
    80002b8e:	c86080e7          	jalr	-890(ra) # 80003810 <holdingsleep>
    80002b92:	cd19                	beqz	a0,80002bb0 <iunlock+0x3c>
    80002b94:	449c                	lw	a5,8(s1)
    80002b96:	00f05d63          	blez	a5,80002bb0 <iunlock+0x3c>
  releasesleep(&ip->lock);
    80002b9a:	854a                	mv	a0,s2
    80002b9c:	00001097          	auipc	ra,0x1
    80002ba0:	c30080e7          	jalr	-976(ra) # 800037cc <releasesleep>
}
    80002ba4:	60e2                	ld	ra,24(sp)
    80002ba6:	6442                	ld	s0,16(sp)
    80002ba8:	64a2                	ld	s1,8(sp)
    80002baa:	6902                	ld	s2,0(sp)
    80002bac:	6105                	add	sp,sp,32
    80002bae:	8082                	ret
    panic("iunlock");
    80002bb0:	00006517          	auipc	a0,0x6
    80002bb4:	8b850513          	add	a0,a0,-1864 # 80008468 <etext+0x468>
    80002bb8:	00003097          	auipc	ra,0x3
    80002bbc:	064080e7          	jalr	100(ra) # 80005c1c <panic>

0000000080002bc0 <itrunc>:

// Truncate inode (discard contents).
// Caller must hold ip->lock.
void
itrunc(struct inode *ip)
{
    80002bc0:	7179                	add	sp,sp,-48
    80002bc2:	f406                	sd	ra,40(sp)
    80002bc4:	f022                	sd	s0,32(sp)
    80002bc6:	ec26                	sd	s1,24(sp)
    80002bc8:	e84a                	sd	s2,16(sp)
    80002bca:	e44e                	sd	s3,8(sp)
    80002bcc:	1800                	add	s0,sp,48
    80002bce:	89aa                	mv	s3,a0
  int i, j;
  struct buf *bp;
  uint *a;

  for(i = 0; i < NDIRECT; i++){
    80002bd0:	05050493          	add	s1,a0,80
    80002bd4:	08050913          	add	s2,a0,128
    80002bd8:	a021                	j	80002be0 <itrunc+0x20>
    80002bda:	0491                	add	s1,s1,4
    80002bdc:	01248d63          	beq	s1,s2,80002bf6 <itrunc+0x36>
    if(ip->addrs[i]){
    80002be0:	408c                	lw	a1,0(s1)
    80002be2:	dde5                	beqz	a1,80002bda <itrunc+0x1a>
      bfree(ip->dev, ip->addrs[i]);
    80002be4:	0009a503          	lw	a0,0(s3)
    80002be8:	00000097          	auipc	ra,0x0
    80002bec:	910080e7          	jalr	-1776(ra) # 800024f8 <bfree>
      ip->addrs[i] = 0;
    80002bf0:	0004a023          	sw	zero,0(s1)
    80002bf4:	b7dd                	j	80002bda <itrunc+0x1a>
    }
  }

  if(ip->addrs[NDIRECT]){
    80002bf6:	0809a583          	lw	a1,128(s3)
    80002bfa:	ed99                	bnez	a1,80002c18 <itrunc+0x58>
    brelse(bp);
    bfree(ip->dev, ip->addrs[NDIRECT]);
    ip->addrs[NDIRECT] = 0;
  }

  ip->size = 0;
    80002bfc:	0409a623          	sw	zero,76(s3)
  iupdate(ip);
    80002c00:	854e                	mv	a0,s3
    80002c02:	00000097          	auipc	ra,0x0
    80002c06:	de0080e7          	jalr	-544(ra) # 800029e2 <iupdate>
}
    80002c0a:	70a2                	ld	ra,40(sp)
    80002c0c:	7402                	ld	s0,32(sp)
    80002c0e:	64e2                	ld	s1,24(sp)
    80002c10:	6942                	ld	s2,16(sp)
    80002c12:	69a2                	ld	s3,8(sp)
    80002c14:	6145                	add	sp,sp,48
    80002c16:	8082                	ret
    80002c18:	e052                	sd	s4,0(sp)
    bp = bread(ip->dev, ip->addrs[NDIRECT]);
    80002c1a:	0009a503          	lw	a0,0(s3)
    80002c1e:	fffff097          	auipc	ra,0xfffff
    80002c22:	696080e7          	jalr	1686(ra) # 800022b4 <bread>
    80002c26:	8a2a                	mv	s4,a0
    for(j = 0; j < NINDIRECT; j++){
    80002c28:	05850493          	add	s1,a0,88
    80002c2c:	45850913          	add	s2,a0,1112
    80002c30:	a021                	j	80002c38 <itrunc+0x78>
    80002c32:	0491                	add	s1,s1,4
    80002c34:	01248b63          	beq	s1,s2,80002c4a <itrunc+0x8a>
      if(a[j])
    80002c38:	408c                	lw	a1,0(s1)
    80002c3a:	dde5                	beqz	a1,80002c32 <itrunc+0x72>
        bfree(ip->dev, a[j]);
    80002c3c:	0009a503          	lw	a0,0(s3)
    80002c40:	00000097          	auipc	ra,0x0
    80002c44:	8b8080e7          	jalr	-1864(ra) # 800024f8 <bfree>
    80002c48:	b7ed                	j	80002c32 <itrunc+0x72>
    brelse(bp);
    80002c4a:	8552                	mv	a0,s4
    80002c4c:	fffff097          	auipc	ra,0xfffff
    80002c50:	798080e7          	jalr	1944(ra) # 800023e4 <brelse>
    bfree(ip->dev, ip->addrs[NDIRECT]);
    80002c54:	0809a583          	lw	a1,128(s3)
    80002c58:	0009a503          	lw	a0,0(s3)
    80002c5c:	00000097          	auipc	ra,0x0
    80002c60:	89c080e7          	jalr	-1892(ra) # 800024f8 <bfree>
    ip->addrs[NDIRECT] = 0;
    80002c64:	0809a023          	sw	zero,128(s3)
    80002c68:	6a02                	ld	s4,0(sp)
    80002c6a:	bf49                	j	80002bfc <itrunc+0x3c>

0000000080002c6c <iput>:
{
    80002c6c:	1101                	add	sp,sp,-32
    80002c6e:	ec06                	sd	ra,24(sp)
    80002c70:	e822                	sd	s0,16(sp)
    80002c72:	e426                	sd	s1,8(sp)
    80002c74:	1000                	add	s0,sp,32
    80002c76:	84aa                	mv	s1,a0
  acquire(&itable.lock);
    80002c78:	00015517          	auipc	a0,0x15
    80002c7c:	90050513          	add	a0,a0,-1792 # 80017578 <itable>
    80002c80:	00003097          	auipc	ra,0x3
    80002c84:	516080e7          	jalr	1302(ra) # 80006196 <acquire>
